(dp0
Vfawn
p1
Vfawn
p2
sVraining
p3
Vrain
p4
sVyellow
p5
Vyellow
p6
sVbarraged
p7
Vbarrage
p8
sVwoods
p9
Vwood
p10
sVhanging
p11
Vhang
p12
sVcomically
p13
g13
sVmarching
p14
Vmarch
p15
sVfingernails
p16
Vfingernail
p17
sVlori
p18
g18
sVcrossbar
p19
g19
sVshaving
p20
Vshave
p21
sVsinking
p22
Vsink
p23
sVswivel
p24
Vswivel
p25
sVknelt
p26
Vkneel
p27
sVfigs
p28
Vfig
p29
sVstabbed
p30
Vstab
p31
sVbringing
p32
Vbring
p33
sVfour
p34
g34
sVwooded
p35
g10
sVwooden
p36
g36
sVClassic
p37
Vclassic
p38
sVpiling
p39
Vpile
p40
sVPERSON
p41
Vperson
p42
sVcrotch
p43
g43
sVsuccession
p44
g44
sVspecially
p45
g45
sVnigh
p46
g46
sVtired
p47
Vtire
p48
sVswitchblade
p49
g49
sVrailing
p50
Vrail
p51
sVbacon
p52
g52
sVtires
p53
g48
sVbannister
p54
g54
sVsecond
p55
Vsecond
p56
sVshrugging
p57
Vshrug
p58
sVsailed
p59
Vsail
p60
sVscraped
p61
Vscrape
p62
sVsnuggled
p63
Vsnuggle
p64
sVdangled
p65
Vdangle
p66
sVthunder
p67
Vthunder
p68
sVcooking
p69
Vcook
p70
sVfingers
p71
Vfinger
p72
sVdangles
p73
g66
sVpawed
p74
Vpaw
p75
sVreporter
p76
g76
sVherb
p77
g77
sVerror
p78
g78
sVhere
p79
g79
sVherd
p80
Vherd
p81
sVreported
p82
Vreport
p83
sVsubstance
p84
g84
sVclimbed
p85
Vclimb
p86
sVJerboa
p87
Vjerboa
p88
sVreports
p89
g83
sVpowdering
p90
Vpowder
p91
sVmilitary
p92
g92
sVclimber
p93
g93
sVgolden
p94
g94
sVexplained
p95
Vexplain
p96
sVThree
p97
Vthree
p98
sVbrought
p99
g33
sVdrys
p100
Vdry
p101
sVopponents
p102
Vopponent
p103
sVspoke
p104
Vspeak
p105
sVmusic
p106
g106
sVchinchilla
p107
g107
sVstrike
p108
Vstrike
p109
sVuntil
p110
g110
sVmenaces
p111
Vmenace
p112
sVfemales
p113
Vfemale
p114
sVThyme
p115
Vthyme
p116
sVbrings
p117
g33
sVsomehting
p118
Vsomeht
p119
sVglass
p120
Vglass
p121
sVincividual
p122
g122
sVhole
p123
Vhole
p124
sVhold
p125
Vhold
p126
sVText
p127
Vtext
p128
sVblade
p129
g129
sVplunger
p130
g130
sVplunges
p131
Vplunge
p132
sVwand
p133
g133
sVpooped
p134
Vpoop
p135
sVorganized
p136
Vorganize
p137
sVHolding
p138
g126
sVEagle
p139
Veagle
p140
sVhoe
p141
Vhoe
p142
sVauger
p143
g143
sVsalmons
p144
Vsalmon
p145
sVdrying
p146
Vdry
p147
sVphonecall
p148
g148
sVmachine
p149
Vmachine
p150
sVhow
p151
g151
sVhot
p152
g152
sVcheetah
p153
g153
sVA
p154
Va
p155
sVbeauty
p156
g156
sVtyped
p157
Vtype
p158
sVsippy
p159
g159
sVdiagram
p160
Vdiagram
p161
sVPlayers
p162
Vplayer
p163
sVwrong
p164
Vwrong
p165
sVtypes
p166
g158
sVcolorfully
p167
g167
sVcalves
p168
Vcalve
p169
sVhamsters
p170
Vhamster
p171
sVstiring
p172
Vstire
p173
sVbaggage
p174
g174
sVhores
p175
Vhore
p176
sVkeeps
p177
Vkeep
p178
sVwind
p179
Vwind
p180
sVwine
p181
Vwine
p182
sVfoodstuff
p183
g183
sVdiagonally
p184
g184
sVwrought
p185
Vwrought
p186
sVplayhouse
p187
g187
sVliqud
p188
g188
sVfit
p189
Vfit
p190
sVscreaming
p191
Vscream
p192
sVbackpack
p193
g193
sVfig
p194
g29
sVhidden
p195
Vhide
p196
sVdoghouse
p197
g197
sVslicing
p198
Vslice
p199
sVmimicking
p200
Vmimic
p201
sVbricks
p202
Vbrick
p203
sVvideo-game
p204
g204
sVthyme
p205
g205
sVdumps
p206
Vdump
p207
sVThumper's
p208
Vthumper'
p209
sVShakira
p210
Vshakira
p211
sVseries
p212
Vsery
p213
sVspider
p214
g214
sVbowls
p215
Vbowl
p216
sVturnip
p217
g217
sVmessage
p218
g218
sVSuper
p219
Vsuper
p220
sVfoundation
p221
g221
sVstamping
p222
Vstamp
p223
sVpumpkins
p224
Vpumpkin
p225
sVchecked
p226
Vcheck
p227
sVknit
p228
Vknit
p229
sVcompetes
p230
Vcompete
p231
sVate
p232
Veat
p233
sVseads
p234
Vsead
p235
sVups
p236
Vup
p237
sVmusicians
p238
Vmusician
p239
sVcompeted
p240
g231
sVcucumber
p241
g241
sVwobbling
p242
Vwobble
p243
sVspeeds
p244
Vspeed
p245
sVChihuahua
p246
Vchihuahua
p247
sVbagful
p248
g248
sVplayfully
p249
g249
sVchannels
p250
Vchannel
p251
sVspinning
p252
Vspin
p253
sVbitten
p254
Vbite
p255
sVroni
p256
g256
sVbasketball
p257
g257
sVreturns
p258
Vreturn
p259
sVneeded
p260
Vneed
p261
sVmaster
p262
Vmaster
p263
sVcritter
p264
g264
sVlegs
p265
Vleg
p266
sVrabbit's
p267
Vrabbit'
p268
sVcushions
p269
Vcushion
p270
sVscrapes
p271
g62
sVcrawl
p272
Vcrawl
p273
sVshowed
p274
Vshow
p275
sVhalf-pipe
p276
g276
sVhandcuffs
p277
Vhandcuff
p278
sVtree
p279
Vtree
p280
sVshower
p281
Vshower
p282
sVskimmed
p283
Vskim
p284
sVfeeling
p285
Vfeel
p286
sVrunner
p287
g287
sVpaddles
p288
Vpaddle
p289
sVpush-ups
p290
Vpush-up
p291
sVperson
p292
g292
sVparamedics
p293
Vparamedic
p294
sVsoaked
p295
Vsoak
p296
sVmetallic
p297
g297
sVracers
p298
Vracer
p299
sVcausing
p300
Vcause
p301
sVguineapig
p302
g302
sVamusing
p303
Vamuse
p304
sVdoors
p305
Vdoor
p306
sVMixing
p307
Vmix
p308
sVpaintbrush
p309
g309
sVzebras
p310
Vzebra
p311
sVobject
p312
Vobject
p313
sVmouth
p314
Vmouth
p315
sVletter
p316
Vletter
p317
sVdummy
p318
Vdummy
p319
sVsinger
p320
g320
sVsculpturing
p321
Vsculpture
p322
sVcops
p323
Vcop
p324
sVcamp
p325
Vcamp
p326
sVbodybuilder
p327
g327
sVcame
p328
Vcome
p329
sVsaying
p330
Vsay
p331
sVboogie
p332
Vboogie
p333
sVbomb
p334
Vbomb
p335
sVpadded
p336
Vpad
p337
sVparticipate
p338
Vparticipate
p339
sVreclines
p340
Vrecline
p341
sVtouches
p342
Vtouch
p343
sVbusy
p344
Vbusy
p345
sVbaby's
p346
Vbaby'
p347
sVcougar
p348
g348
sVbush
p349
Vbush
p350
sVtouched
p351
g343
sVheartily
p352
g352
sVrice
p353
Vrice
p354
sVhoeing
p355
Vhoee
p356
sVplate
p357
Vplate
p358
sVpocket
p359
Vpocket
p360
sVvaccinations
p361
Vvaccination
p362
sVX
p363
Vx
p364
sVnet
p365
Vnet
p366
sVgreens
p367
Vgreen
p368
sVboarder
p369
g369
sVdipping
p370
Vdip
p371
sVpatch
p372
Vpatch
p373
sVeyelids
p374
Veyelid
p375
sVpiggy
p376
g376
sVblew
p377
Vblow
p378
sVpade
p379
g379
sVpads
p380
g337
sVJohn
p381
Vjohn
p382
sVhammer
p383
Vhammer
p384
sVDogs
p385
Vdog
p386
sVoceanic
p387
g387
sVlots
p388
Vlot
p389
sVrings
p390
Vring
p391
sVscore
p392
Vscore
p393
sVyogurt
p394
g394
sVTerrier
p395
Vterrier
p396
sVpirate
p397
Vpirate
p398
sVRinspeed's
p399
Vrinspeed'
p400
sVclaws
p401
Vclaw
p402
sVrolled
p403
Vroll
p404
sVsmelled
p405
Vsmell
p406
sVtoilette
p407
g407
sVstrip-slicer
p408
g408
sVroller
p409
g409
sVblanced
p410
Vblance
p411
sVaccident
p412
g412
sVeye-shado
p413
g413
sVcountry
p414
g414
sVpits
p415
Vpit
p416
sVheating
p417
Vheat
p418
sVargue
p419
Vargue
p420
sVasked
p421
Vask
p422
sVblending
p423
Vblend
p424
sVmunched
p425
Vmunch
p426
sVhumming
p427
Vhum
p428
sVgrazing
p429
Vgraze
p430
sVcontestants
p431
Vcontestant
p432
sVwatercraft
p433
g433
sVstartles
p434
Vstartle
p435
sVbilling
p436
Vbill
p437
sVfro
p438
g438
sVchiseling
p439
Vchisele
p440
sVupside-down
p441
g441
sVstartled
p442
g435
sVstadium
p443
g443
sVfry
p444
Vfry
p445
sVdollies
p446
Vdolly
p447
sVdrizzles
p448
Vdrizzle
p449
sVobese
p450
g450
sVlife
p451
g451
sVspit
p452
Vspit
p453
sVloris'
p454
g454
sVskiis
p455
Vskii
p456
sVworker
p457
g457
sVlift
p458
Vlift
p459
sVchile
p460
g460
sVchild
p461
g461
sVworked
p462
Vwork
p463
sVspin
p464
g253
sVkamakodo
p465
g465
sVthree-piece
p466
g466
sVtzu
p467
g467
sVcanoeing
p468
Vcanoe
p469
sVplayed
p470
Vplay
p471
sVkohl
p472
g472
sVplayer
p473
g473
sV'My
p474
V'my
p475
sVviolin
p476
g476
sVfeed
p477
Vfeed
p478
sVpesquet
p479
g479
sVthings
p480
Vthing
p481
sVtoaster
p482
g482
sVsplit
p483
Vsplit
p484
sVbabies
p485
Vbaby
p486
sVtoasted
p487
Vtoast
p488
sVRetriever
p489
Vretriever
p490
sVCyclist
p491
Vcyclist
p492
sVboiled
p493
Vboil
p494
sVmarches
p495
g15
sVtops
p496
Vtop
p497
sVmarched
p498
g15
sVtuna
p499
g499
sVburgers
p500
Vburger
p501
sVweight-lifter
p502
g502
sVmassaging
p503
Vmassage
p504
sVonion-looking
p505
Vonion-look
p506
sVsleepy
p507
g507
sVtorching
p508
Vtorch
p509
sVrushing
p510
Vrush
p511
sVsnout
p512
g512
sVenters
p513
Venter
p514
sVham
p515
Vham
p516
sVold-fashioned
p517
Vold-fashion
p518
sVhad
p519
Vhave
p520
sVhay
p521
Vhay
p522
sVConnecticut
p523
Vconnecticut
p524
sVhas
p525
g520
sVhat
p526
Vhat
p527
sVposed
p528
Vpose
p529
sVpossibly
p530
g530
sVgameboy
p531
g531
sVshadow
p532
Vshadow
p533
sVoccurring
p534
Voccur
p535
sVforepaw
p536
g536
sVpavement
p537
g537
sVsteps
p538
Vstep
p539
sVvegtable
p540
g540
sVmarinating
p541
Vmarinate
p542
sVright
p543
Vright
p544
sVold
p545
g545
sVcreek
p546
g546
sVcrowd
p547
Vcrowd
p548
sVpeople
p549
Vpeople
p550
sVring-like
p551
g551
sVokra
p552
g552
sVfor
p553
g553
sVbottom
p554
Vbottom
p555
sVfox
p556
Vfox
p557
sVplucked
p558
Vpluck
p559
sVfog
p560
Vfog
p561
sVperiphery
p562
g562
sVtreadmill
p563
g563
sVfom
p564
g564
sVpinched
p565
Vpinch
p566
sVshakes
p567
Vshake
p568
sVhanseter
p569
g569
sVtrampoline
p570
Vtrampoline
p571
sVNicholson
p572
Vnicholson
p573
sVchin-up
p574
g574
sVpincher
p575
g575
sVpinches
p576
g566
sVbowing
p577
Vbow
p578
sVchain-link
p579
g579
sVstoreroom
p580
g580
sVtrampolines
p581
g571
sVslightly
p582
g582
sVraised
p583
Vraise
p584
sVgauze
p585
g585
sVson
p586
g586
sVmagazines
p587
Vmagazine
p588
sVwrap
p589
g589
sVshoots
p590
Vshoot
p591
sVGRASS
p592
Vgrass
p593
sVfabric
p594
g594
sVwaits
p595
Vwait
p596
sVsupport
p597
Vsupport
p598
sVconstantly
p599
g599
sVboy's
p600
Vboy'
p601
sVcall
p602
Vcall
p603
sVlaunching
p604
Vlaunch
p605
sVhappy
p606
g606
sVoffer
p607
Voffer
p608
sVforming
p609
Vform
p610
sVtigers
p611
Vtiger
p612
sVcaretaker's
p613
Vcaretaker'
p614
sVUdon
p615
Vudon
p616
sVotter
p617
g617
sVlayd
p618
g618
sVmosture
p619
g619
sVinside
p620
g620
sVpaprika
p621
g621
sVlays
p622
Vlayer
p623
sVTony
p624
Vtony
p625
sVsquirrel's
p626
Vsquirrel'
p627
sVduet
p628
g628
sVpassenger
p629
g629
sVtournament
p630
g630
sVtriangles
p631
Vtriangle
p632
sVmicrowaving
p633
Vmicrowave
p634
sVfloor
p635
Vfloor
p636
sVactor
p637
g637
sVuttered
p638
Vutter
p639
sVflood
p640
Vflood
p641
sVhydrating
p642
Vhydrate
p643
sVleek
p644
g644
sVgreenery
p645
g645
sVrehearsing
p646
Vrehearse
p647
sVpalms
p648
Vpalm
p649
sVmodels
p650
Vmodel
p651
sVtransported
p652
Vtransport
p653
sVsmelling
p654
g406
sV'o
p655
g655
sVcleaver
p656
g656
sVhawker
p657
g657
sVshootout
p658
g658
sVfastened
p659
Vfasten
p660
sVPerson
p661
Vperson
p662
sVsniffed
p663
Vsniff
p664
sVpet
p665
Vpet
p666
sVtime
p667
Vtime
p668
sVpush
p669
Vpush
p670
sVgown
p671
Vgown
p672
sVchilds
p673
Vchild
p674
sVtying
p675
Vtie
p676
sVchain
p677
Vchain
p678
sVcrocodile
p679
g679
sVskate
p680
Vskate
p681
sVskiing
p682
Vski
p683
sVtrashcan
p684
g684
sVchair
p685
Vchair
p686
sVvet
p687
Vvet
p688
sVballes
p689
Vballe
p690
sVblack-and-white-cat
p691
g691
sVbicycles
p692
Vbicycle
p693
sVdragonfly
p694
g694
sVicing
p695
Vice
p696
sVceremonisl
p697
g697
sVprances
p698
Vprance
p699
sVcooks
p700
g70
sVtricycle
p701
Vtricycle
p702
sVkneading
p703
Vknead
p704
sVsubway
p705
g705
sVteam
p706
Vteam
p707
sVskewer
p708
Vskewer
p709
sVbonfire
p710
g710
sVpanima
p711
g711
sVmeadow
p712
g712
sVsign
p713
Vsign
p714
sVchopping
p715
Vchop
p716
sVshirts
p717
Vshirt
p718
sVbagging
p719
Vbag
p720
sVheadset
p721
g721
sVghost-like
p722
g722
sVChefs
p723
Vchef
p724
sVaxes
p725
Vaxe
p726
sVshappens
p727
Vshappen
p728
sVcurrent
p729
g729
sVfalling
p730
Vfall
p731
sVcrashing
p732
Vcrash
p733
sVcelebrates
p734
Vcelebrate
p735
sVbanister
p736
g736
sVclimbs
p737
g86
sVplucking
p738
g559
sVMt
p739
Vmt
p740
sVWoman
p741
Vwoman
p742
sVHamster
p743
Vhamster
p744
sVyards
p745
Vyard
p746
sValone
p747
g747
sValong
p748
g748
sVpassengers
p749
Vpassenger
p750
sVstudies
p751
Vstudy
p752
sVfake
p753
Vfake
p754
sVtraversing
p755
Vtraverse
p756
sVpara-sailing
p757
Vpara-sail
p758
sVcostumed
p759
Vcostume
p760
sVworking
p761
g463
sVangry
p762
g762
sVtightly
p763
g763
sVtopples
p764
Vtopple
p765
sVwondering
p766
Vwonder
p767
sVfilms
p768
Vfilm
p769
sVloving
p770
Vlove
p771
sVhigh-speed
p772
Vhigh-spee
p773
sVscratches
p774
Vscratch
p775
sVdais
p776
Vdai
p777
sVriders
p778
Vrider
p779
sVgrassing
p780
g593
sVslaloming
p781
Vslalom
p782
sVfollowing
p783
Vfollow
p784
sVMonkey
p785
Vmonkey
p786
sVfrogs
p787
Vfrog
p788
sVlocks
p789
Vlock
p790
sVmotorcar
p791
g791
sVhides
p792
g196
sVlistens
p793
Vlisten
p794
sVscoots
p795
Vscoot
p796
sVbuttered
p797
Vbutter
p798
sVdivided
p799
Vdivide
p800
sVpoking
p801
Vpoke
p802
sVcirlces
p803
Vcirlce
p804
sVelephant
p805
g805
sVelephany
p806
g806
sVexplores
p807
Vexplore
p808
sVexplorer
p809
g809
sVblasting
p810
Vblast
p811
sVspot
p812
Vspot
p813
sVexplored
p814
g808
sVdate
p815
Vdate
p816
sVlids
p817
Vlid
p818
sVsurfing
p819
Vsurf
p820
sVsh
p821
g821
sVtruck
p822
Vtruck
p823
sVgarlands
p824
Vgarland
p825
sVwolves
p826
Vwolve
p827
sVpulled
p828
Vpull
p829
sVtravel
p830
Vtravel
p831
sVse
p832
g832
sVdrunken
p833
g833
sVflips
p834
Vflip
p835
sVRihanna
p836
Vrihanna
p837
sVcourse
p838
Vcourse
p839
sVpush-upson
p840
g840
sVtore
p841
Vtear
p842
sVjig
p843
Vjig
p844
sVlimbs
p845
Vlimb
p846
sVthumb
p847
Vthumb
p848
sVaccordion
p849
g849
sVtorn
p850
g842
sVskills
p851
Vskill
p852
sVmatches
p853
Vmatch
p854
sVsubordinates
p855
Vsubordinate
p856
sVrecords
p857
Vrecord
p858
sVdrilling
p859
Vdrill
p860
sVarriving
p861
Varrive
p862
sVrunners
p863
Vrunner
p864
sVpealing
p865
Vpeal
p866
sVYellow
p867
g6
sVfisherman
p868
g868
sVbowling
p869
g216
sVveins
p870
Vvein
p871
sVquarter
p872
Vquarter
p873
sVturtle
p874
Vturtle
p875
sVsquare
p876
Vsquare
p877
sVretrieve
p878
Vretrieve
p879
sVbursting
p880
Vburst
p881
sVcrushing
p882
Vcrush
p883
sVSheppard
p884
Vsheppard
p885
sVentering
p886
g514
sVbeetle
p887
Vbeetle
p888
sVtwo-piece
p889
g889
sVShepherd
p890
Vshepherd
p891
sVcanvas
p892
Vcanva
p893
sVcontainer
p894
g894
sVLeopard
p895
Vleopard
p896
sVpizza's
p897
Vpizza'
p898
sVcontained
p899
Vcontain
p900
sVexploding
p901
Vexplode
p902
sVformula
p903
g903
sVsquares
p904
g877
sVigniting
p905
Vignite
p906
sVhairdresser
p907
g907
sVspooning
p908
Vspoon
p909
sVbumps
p910
Vbump
p911
sVplea
p912
g912
sVbumpy
p913
g913
sVeel-like
p914
g914
sVtraining
p915
Vtrain
p916
sVsilhouetted
p917
Vsilhouette
p918
sVbackside
p919
g919
sVget's
p920
Vget'
p921
sVlaldy
p922
g922
sVone
p923
g923
sVopen
p924
Vopen
p925
sVcity
p926
g926
sVbite
p927
g255
sVbisquit
p928
g928
sVteacher
p929
g929
sV2
p930
g930
sVGarlic
p931
Vgarlic
p932
sVstuffed
p933
Vstuff
p934
sVtyping
p935
g158
sVbits
p936
Vbit
p937
sVslashes
p938
Vslash
p939
sVartifact
p940
g940
sVpadding
p941
g337
sVpotoatoe
p942
g942
sVSeven
p943
Vseven
p944
sVcoats
p945
Vcoat
p946
sVglossy
p947
g947
sVjanitor
p948
g948
sVtasted
p949
Vtaste
p950
sVturned
p951
Vturn
p952
sVlocations
p953
Vlocation
p954
sValley
p955
g955
sVsad
p956
g956
sVsay
p957
g331
sVsax
p958
g958
sVsaw
p959
Vsee
p960
sVsat
p961
Vsit
p962
sVJewish
p963
Vjewish
p964
sVknead
p965
g704
sVaside
p966
g966
sVzoo
p967
g967
sVnote
p968
Vnote
p969
sVtake
p970
Vtake
p971
sVHalf
p972
Vhalf
p973
sVHall
p974
Vhall
p975
sVbutterfly
p976
g976
sVhanding
p977
Vhand
p978
sVmaneuvering
p979
Vmaneuver
p980
sVnewscasters
p981
Vnewscaster
p982
sVmicrowaves
p983
Vmicrowave
p984
sVfails
p985
Vfail
p986
sVprinted
p987
Vprint
p988
sVcrochet
p989
Vcrochet
p990
sVknee
p991
g991
sVinserted
p992
Vinsert
p993
sVlawn
p994
g994
sVfarmers
p995
Vfarmer
p996
sVdrive
p997
Vdrive
p998
sVcushioned
p999
g270
sVAK-47
p1000
Vak-47
p1001
sVbackdrop
p1002
g1002
sVaxe
p1003
g726
sVsalt
p1004
Vsalt
p1005
sVwalking
p1006
Vwalk
p1007
sVcherry
p1008
g1008
sVlotus
p1009
Vlotu
p1010
sVgrilling
p1011
Vgrill
p1012
sVbright
p1013
g1013
sVspoons
p1014
g909
sVslow
p1015
Vslow
p1016
sVbyclist
p1017
g1017
sVstenotype
p1018
g1018
sVOcra
p1019
Vocra
p1020
sVaimlessly
p1021
g1021
sVtears
p1022
g842
sVgoing
p1023
Vgo
p1024
sVhockey
p1025
g1025
sVrobe
p1026
Vrobe
p1027
sVclawing
p1028
g402
sVsuitcases
p1029
Vsuitcase
p1030
sVassistant
p1031
g1031
sVwheelie
p1032
g1032
sVOtters
p1033
Votter
p1034
sVartist
p1035
g1035
sVtrys
p1036
Vtry
p1037
sVManchester
p1038
Vmanchester
p1039
sVtortilla
p1040
g1040
sVwhere
p1041
g1041
sVdived
p1042
Vdive
p1043
sVcheesecloth
p1044
g1044
sVdives
p1045
g1043
sVcube-size
p1046
g1046
sVpoops
p1047
g135
sVjumped
p1048
Vjump
p1049
sVmops
p1050
Vmop
p1051
sVteacup
p1052
g1052
sVmoons
p1053
Vmoon
p1054
sVThai
p1055
Vthai
p1056
sVmolds
p1057
Vmold
p1058
sVjumper
p1059
g1059
sVcantaloupe
p1060
g1060
sVvertical
p1061
g1061
sVfarts
p1062
Vfart
p1063
sVscreen
p1064
Vscreen
p1065
sVsupermarket
p1066
g1066
sVspare
p1067
Vspare
p1068
sVmenacing
p1069
g112
sVbusting
p1070
Vbust
p1071
sVmans
p1072
Vman
p1073
sVloafs
p1074
Vloaf
p1075
sVparapet
p1076
g1076
sVmany
p1077
g1077
sVflipped
p1078
g835
sVmand
p1079
g1079
sVgrooming
p1080
Vgroom
p1081
sVcan't
p1082
Vcan
p1083
sVboar
p1084
g1084
sVtwig
p1085
Vtwig
p1086
sVboat
p1087
Vboat
p1088
sVcombines
p1089
Vcombine
p1090
sVsubmerging
p1091
Vsubmerge
p1092
sVstretch
p1093
Vstretch
p1094
sVtoothpaste
p1095
g1095
sVbreath
p1096
g1096
sVrecyclables
p1097
Vrecyclable
p1098
sVstripped
p1099
Vstrip
p1100
sVexcreting
p1101
Vexcrete
p1102
sVwants
p1103
Vwant
p1104
sVbrocoli
p1105
g1105
sVlanes
p1106
Vlane
p1107
sVformed
p1108
g610
sVfelling
p1109
Vfel
p1110
sVtatoos
p1111
Vtatoo
p1112
sVtribal
p1113
g1113
sVstraighten
p1114
Vstraighten
p1115
sVsqueezes
p1116
Vsqueeze
p1117
sVcanoes
p1118
g469
sVnewspaper
p1119
g1119
sVspotlight
p1120
Vspotlight
p1121
sValuminium
p1122
g1122
sVcanoe
p1123
g469
sVtwists
p1124
Vtwist
p1125
sVengaged
p1126
Vengage
p1127
sVtased
p1128
Vtase
p1129
sVcafe
p1130
g1130
sVshuts
p1131
Vshut
p1132
sVslam-dunking
p1133
Vslam-dunk
p1134
sVwrappers
p1135
Vwrapper
p1136
sVbarbed
p1137
Vbarb
p1138
sVwires
p1139
Vwire
p1140
sVI
p1141
Vi
p1142
sVedges
p1143
Vedge
p1144
sVwired
p1145
g1140
sVadvertisement
p1146
g1146
sVbooster
p1147
g1147
sVmohawk
p1148
g1148
sVpacing
p1149
Vpace
p1150
sVtrains
p1151
g916
sVBOY
p1152
Vboy
p1153
sVsteamed
p1154
Vsteam
p1155
sVbeing
p1156
Vbe
p1157
sVrest
p1158
Vrest
p1159
sVpersonals
p1160
Vpersonal
p1161
sVbarbecued
p1162
Vbarbecu
p1163
sVcilantro
p1164
g1164
sVmandolin
p1165
g1165
sVpercussionist
p1166
g1166
sVskier
p1167
g1167
sVaround
p1168
g1168
sVdark
p1169
Vdark
p1170
sVtraffic
p1171
Vtraffic
p1172
sVvacuum
p1173
Vvacuum
p1174
sVmeat
p1175
g1175
sVShark
p1176
Vshark
p1177
sVtarp
p1178
g1178
sVclay
p1179
Vclay
p1180
sVstationary
p1181
g1181
sVkennel
p1182
Vkennel
p1183
sVpickled
p1184
Vpickle
p1185
sVscatched
p1186
Vscatch
p1187
sVlobster
p1188
g1188
sVdiving
p1189
g1043
sVpickles
p1190
g1185
sVbongos
p1191
Vbongo
p1192
sVtote
p1193
Vtote
p1194
sVcavity
p1195
g1195
sVtube
p1196
Vtube
p1197
sVsearing
p1198
Vsear
p1199
sVtuba
p1200
g1200
sVBulls
p1201
Vbull
p1202
sVexit
p1203
Vexit
p1204
sVbelches
p1205
Vbelch
p1206
sVescelator
p1207
g1207
sVpower
p1208
Vpower
p1209
sVfished
p1210
Vfish
p1211
sVstone
p1212
Vstone
p1213
sVpackage
p1214
Vpackage
p1215
sVslender
p1216
g1216
sVmeal
p1217
g1217
sVact
p1218
Vact
p1219
sVunpacks
p1220
Vunpack
p1221
sVstony
p1222
g1222
sVcurling
p1223
Vcurl
p1224
sVburning
p1225
Vburn
p1226
sVchoppers
p1227
Vchopper
p1228
sVimage
p1229
Vimage
p1230
sVPolaroid
p1231
Vpolaroid
p1232
sVlegged
p1233
g266
sVfishes
p1234
Vfishes
p1235
sVmoped
p1236
Vmope
p1237
sVwade
p1238
Vwade
p1239
sVjumpped
p1240
Vjumpp
p1241
sVphone's
p1242
Vphone'
p1243
sVher
p1244
g1244
sVlounging
p1245
Vlounge
p1246
sVhen
p1247
g1247
sVbubble
p1248
Vbubble
p1249
sVcomplete
p1250
Vcomplete
p1251
sVchild's
p1252
Vchild'
p1253
sVpinneapple
p1254
g1254
sVgliding
p1255
Vglide
p1256
sVbundt
p1257
g1257
sVplucks
p1258
g559
sVgurney
p1259
g1259
sVmice
p1260
g1260
sVeyedropper
p1261
g1261
sVwith
p1262
g1262
sVbuying
p1263
Vbuy
p1264
sVpull
p1265
g829
sVthumps
p1266
Vthump
p1267
sVFoxes
p1268
g557
sVdirty
p1269
Vdirty
p1270
sVone-handed
p1271
Vone-hand
p1272
sVtorso
p1273
g1273
sVpulp
p1274
Vpulp
p1275
sVdetailed
p1276
Vdetail
p1277
sVcarves
p1278
Vcarve
p1279
sVab
p1280
g1280
sVad
p1281
g1281
sVmoutain
p1282
g1282
sVstraightens
p1283
g1115
sVwatches
p1284
Vwatch
p1285
sVan
p1286
g1286
sVas
p1287
Va
p1288
sVat
p1289
g1289
sVwalks
p1290
g1007
sVax
p1291
g1291
sVadmiring
p1292
Vadmire
p1293
sVcoconut
p1294
g1294
sVcream
p1295
Vcream
p1296
sVAtlantis
p1297
Vatlanti
p1298
sVtight
p1299
g1299
sVsomeones
p1300
Vsomeone
p1301
sVpuppy
p1302
g1302
sVLady
p1303
Vlady
p1304
sVAsian
p1305
Vasian
p1306
sVsit-ups
p1307
Vsit-up
p1308
sVwaving
p1309
Vwave
p1310
sVherbs
p1311
Vherb
p1312
sVmidget
p1313
g1313
sVtricky
p1314
g1314
sVgarbs
p1315
Vgarb
p1316
sVtricks
p1317
Vtrick
p1318
sVgroom
p1319
g1081
sVmask
p1320
Vmask
p1321
sVmimic
p1322
g201
sVStreet
p1323
Vstreet
p1324
sVmotocross
p1325
Vmotocros
p1326
sVceramic
p1327
g1327
sVcauses
p1328
g301
sVhunting
p1329
Vhunt
p1330
sVtv
p1331
g1331
sVlaughing
p1332
Vlaugh
p1333
sVto
p1334
g1334
sVtail
p1335
g1335
sVchewing
p1336
Vchew
p1337
sVdressing
p1338
Vdress
p1339
sVsmile
p1340
Vsmile
p1341
sVnori
p1342
g1342
sVte
p1343
g1343
sVknotted
p1344
Vknot
p1345
sVcase
p1346
Vcase
p1347
sVuncaged
p1348
Vuncage
p1349
sVswallows
p1350
Vswallow
p1351
sVfloated
p1352
Vfloat
p1353
sVdiary
p1354
g1354
sVfloater
p1355
g1355
sVstir-frying
p1356
Vstir-fry
p1357
sVcable
p1358
Vcable
p1359
sVaccompanying
p1360
Vaccompany
p1361
sVlawnmower
p1362
g1362
sVlaying
p1363
g623
sVdodged
p1364
Vdodge
p1365
sVlarge
p1366
g1366
sVsang
p1367
g1367
sVsand
p1368
Vsand
p1369
sVswirling
p1370
Vswirl
p1371
sVfilling
p1372
Vfill
p1373
sVunwraps
p1374
Vunwrap
p1375
sVsmall
p1376
g1376
sVmammal
p1377
g1377
sVlecturing
p1378
Vlecture
p1379
sVsync
p1380
Vsync
p1381
sVpast
p1382
Vpast
p1383
sVpass
p1384
Vpass
p1385
sVrehearsed
p1386
g647
sVbicyle
p1387
g1387
sVleis
p1388
Vlei
p1389
sVsection
p1390
Vsection
p1391
sVbicylce
p1392
g1392
sVnurse
p1393
Vnurse
p1394
sVfull
p1395
g1395
sVleaping
p1396
Vleap
p1397
sVstore-wrapped
p1398
Vstore-wrap
p1399
sVmound
p1400
Vmound
p1401
sVSpreading
p1402
Vspread
p1403
sVhamster
p1404
g1404
sVpick
p1405
Vpick
p1406
sVaction
p1407
g1407
sVrummaging
p1408
Vrummage
p1409
sVfollowed
p1410
g784
sVstrolling
p1411
Vstroll
p1412
sVPlanes
p1413
Vplane
p1414
sVpunches
p1415
Vpunch
p1416
sVgose
p1417
g1417
sVpulls
p1418
g829
sVdarkens
p1419
Vdarken
p1420
sVselect
p1421
Vselect
p1422
sVEgg
p1423
Vegg
p1424
sValcoholic
p1425
g1425
sVpoodle
p1426
g1426
sV6
p1427
g1427
sVionion
p1428
g1428
sVmore
p1429
g1429
sVteen
p1430
g1430
sVfigurines
p1431
Vfigurine
p1432
sVdoor
p1433
g1433
sVbatsman
p1434
g1434
sVocena
p1435
g1435
sVvideoclip
p1436
g1436
sVtelephone
p1437
Vtelephone
p1438
sVcoyote
p1439
g1439
sVCheese
p1440
Vcheese
p1441
sVkeeping
p1442
g178
sVmall
p1443
g1443
sVknocked
p1444
Vknock
p1445
sVmale
p1446
g1446
sVgallop
p1447
Vgallop
p1448
sVdress
p1449
g1339
sVsalts
p1450
g1005
sVhuge
p1451
g1451
sVrespective
p1452
g1452
sVporch
p1453
g1453
sVcling
p1454
Vcling
p1455
sVhugs
p1456
Vhug
p1457
sVbrowns
p1458
Vbrown
p1459
sVcreature
p1460
g1460
sVwaved
p1461
g1310
sVplant
p1462
Vplant
p1463
sVcountryside
p1464
g1464
sVsympathize
p1465
Vsympathize
p1466
sVplane
p1467
g1414
sVwaves
p1468
g1310
sVbackyard
p1469
g1469
sVappealed
p1470
Vappeal
p1471
sVthickener
p1472
g1472
sVresemble
p1473
Vresemble
p1474
sVregister
p1475
Vregister
p1476
sVvolleyball
p1477
g1477
sVbroadcasting
p1478
Vbroadcast
p1479
sVfender
p1480
g1480
sVpatio
p1481
g1481
sVrottweiler
p1482
g1482
sVmousse
p1483
g1483
sVpana
p1484
g1484
sVpaper
p1485
Vpaper
p1486
sVpane
p1487
g1487
sVSeasonings
p1488
Vseasoning
p1489
sVits
p1490
Vit
p1491
sVroots
p1492
Vroot
p1493
sVdieing
p1494
Vdiee
p1495
sVlicks
p1496
Vlick
p1497
sVrapidly
p1498
g1498
sVtravelling
p1499
g831
sVsauce
p1500
Vsauce
p1501
sVtentatively
p1502
g1502
sVsucker
p1503
Vsucker
p1504
sVMichael
p1505
Vmichael
p1506
sVshopped
p1507
Vshop
p1508
sVlettuce
p1509
g1509
sVSavannah
p1510
Vsavannah
p1511
sVpiping
p1512
Vpipe
p1513
sVsquirrrel
p1514
g1514
sVfound
p1515
Vfind
p1516
sVcoring
p1517
Vcore
p1518
sVbends
p1519
Vbend
p1520
sVeyelash
p1521
g1521
sVPeoples
p1522
g550
sVoperation
p1523
g1523
sVreally
p1524
g1524
sVBettie
p1525
Vbettie
p1526
sVlipstick
p1527
g1527
sVscoops
p1528
Vscoop
p1529
sVmisses
p1530
Vmiss
p1531
sVrace
p1532
Vrace
p1533
sVBMX
p1534
Vbmx
p1535
sVSomone
p1536
Vsomone
p1537
sVhighway
p1538
g1538
sVteppanyaki
p1539
g1539
sVdrifting
p1540
Vdrift
p1541
sVcockpit
p1542
g1542
sVBeans
p1543
Vbean
p1544
sVCartoons
p1545
Vcartoon
p1546
sVplowing
p1547
Vplow
p1548
sVbumped
p1549
g911
sVtenderizing
p1550
Vtenderize
p1551
sVSoup
p1552
Vsoup
p1553
sVwoman's
p1554
Vwoman'
p1555
sVrack
p1556
g1556
sVbumper
p1557
Vbumper
p1558
sVcastle
p1559
Vcastle
p1560
sVclump
p1561
Vclump
p1562
sVcorrugated
p1563
Vcorrugate
p1564
sVthereafter
p1565
g1565
sVnumber
p1566
Vnumber
p1567
sVfeeder
p1568
g1568
sVdiffer
p1569
Vdiffer
p1570
sVheads
p1571
Vhead
p1572
sVjet
p1573
Vjet
p1574
sVswipe
p1575
Vswipe
p1576
sVsargent
p1577
g1577
sVflings
p1578
Vfling
p1579
sVtomatos
p1580
Vtomato
p1581
sVinterviewed
p1582
Vinterview
p1583
sVtomatoe
p1584
g1584
sVstairs
p1585
Vstair
p1586
sVUssain
p1587
Vussain
p1588
sVgetaway
p1589
g1589
sVtummy
p1590
g1590
sVmarriage
p1591
g1591
sVToys
p1592
Vtoy
p1593
sVfights
p1594
Vfight
p1595
sVpedestrian
p1596
g1596
sVblond
p1597
g1597
sVballerina
p1598
g1598
sVantagonizes
p1599
Vantagonize
p1600
sVFood
p1601
Vfood
p1602
sVself
p1603
g1603
sVjostle
p1604
g1604
sVplay
p1605
g471
sVdepartmental
p1606
g1606
sVblackboard
p1607
g1607
sVswiftly
p1608
g1608
sVdirtbike
p1609
g1609
sVcolliding
p1610
Vcollide
p1611
sVcover
p1612
Vcover
p1613
sVbarren
p1614
g1614
sVbarrel
p1615
Vbarrel
p1616
sVseasing
p1617
Vseas
p1618
sVdragged
p1619
Vdrag
p1620
sVgold
p1621
g1621
sVcruises
p1622
Vcruise
p1623
sVblended
p1624
g424
sVlengthwise
p1625
g1625
sVburrata
p1626
g1626
sVdefender
p1627
g1627
sVtogther
p1628
g1628
sVblender
p1629
g1629
sVwraps
p1630
Vwrapped
p1631
sVGlock
p1632
Vglock
p1633
sVkeychain
p1634
g1634
sVwrites
p1635
Vwrite
p1636
sVgooey
p1637
g1637
sVboarding
p1638
Vboard
p1639
sVzip-bag
p1640
g1640
sVbeams
p1641
Vbeam
p1642
sVsunny
p1643
g1643
sVsynchronization
p1644
g1644
sVactions
p1645
Vaction
p1646
sVclosely
p1647
g1647
sVreporters
p1648
Vreporter
p1649
sVbanner
p1650
g1650
sVTzu
p1651
Vtzu
p1652
sVpaddling
p1653
g289
sVcry
p1654
Vcry
p1655
sVslabs
p1656
Vslab
p1657
sVriver
p1658
g1658
sVbreading
p1659
Vbread
p1660
sVapproaching
p1661
Vapproach
p1662
sVset
p1663
Vset
p1664
sVFox
p1665
g557
sVjerboa
p1666
g1666
sVjellyroll
p1667
g1667
sVsee
p1668
g960
sVsea
p1669
g1669
sVsips
p1670
Vsip
p1671
sVknees
p1672
Vknee
p1673
sVmovie
p1674
g1674
sVtopmost
p1675
g1675
sVpickup
p1676
g1676
sVmonsters
p1677
Vmonster
p1678
sVenclosures
p1679
Venclosure
p1680
sVpremises
p1681
Vpremise
p1682
sVbarely
p1683
g1683
sVwhole
p1684
g1684
sVpatty
p1685
g1685
sVload
p1686
Vload
p1687
sVloaf
p1688
g1075
sVbell
p1689
Vbell
p1690
sVsmashing
p1691
Vsmash
p1692
sVhollow
p1693
Vhollow
p1694
sVscallop
p1695
Vscallop
p1696
sVadjoining
p1697
Vadjoin
p1698
sVchurch
p1699
Vchurch
p1700
sVPeanuts
p1701
Vpeanut
p1702
sVbelt
p1703
Vbelt
p1704
sVcartoon-man
p1705
g1705
sVdevil
p1706
Vdevil
p1707
sVFighter'
p1708
Vfighter'
p1709
sVCars
p1710
Vcar
p1711
sVhitting
p1712
Vhit
p1713
sVegg's
p1714
Vegg'
p1715
sVresting
p1716
g1159
sVraced
p1717
g1533
sVsquirrel
p1718
g1718
sVfire
p1719
Vfire
p1720
sVwhat's
p1721
Vwhat'
p1722
sVhind
p1723
g1723
sVsilencer
p1724
g1724
sVracer
p1725
g1725
sVraces
p1726
g1533
sVawake
p1727
Vawake
p1728
sVMorbidly
p1729
Vmorbidly
p1730
sVStarting
p1731
Vstart
p1732
sVwheeled
p1733
Vwheel
p1734
sVpresses
p1735
Vpress
p1736
sVhandling
p1737
Vhandle
p1738
sVChinese
p1739
Vchinese
p1740
sVcaged
p1741
Vcage
p1742
sVstraight
p1743
g1743
sVCarrots
p1744
Vcarrot
p1745
sVsesame
p1746
g1746
sVseed
p1747
Vseed
p1748
sVpressed
p1749
g1736
sVleaning
p1750
Vlean
p1751
sVkissing
p1752
Vkiss
p1753
sVcages
p1754
g1742
sVlade
p1755
Vlade
p1756
sVpound
p1757
Vpound
p1758
sVbacking
p1759
Vback
p1760
sVbinding
p1761
Vbound
p1762
sVducks
p1763
Vduck
p1764
sVchase
p1765
Vchase
p1766
sVfunny
p1767
g1767
sVfibers
p1768
Vfiber
p1769
sVfetching
p1770
Vfetch
p1771
sVelevated
p1772
Velevate
p1773
sVread
p1774
Vread
p1775
sVpecking
p1776
Vpeck
p1777
sVknitting
p1778
g229
sVflooded
p1779
g641
sVwaterslide
p1780
g1780
sVcigar
p1781
g1781
sVviewing
p1782
Vview
p1783
sVwaddles
p1784
Vwaddle
p1785
sVleaps
p1786
g1397
sVstack
p1787
Vstack
p1788
sVescalator
p1789
g1789
sVcanned
p1790
Vcan
p1791
sVpicks
p1792
g1406
sVconcrete
p1793
Vconcrete
p1794
sVSoy
p1795
Vsoy
p1796
sVhandcuffing
p1797
g278
sVclasped
p1798
Vclasp
p1799
sVstunt
p1800
Vstunt
p1801
sVforrest
p1802
g1802
sVunto
p1803
g1803
sVdrizzled
p1804
g449
sVgoblet
p1805
g1805
sVcuffs
p1806
Vcuff
p1807
sVchest
p1808
g1808
sVdhal
p1809
g1809
sVlocation
p1810
g1810
sVcrying
p1811
g1655
sVshoestring
p1812
Vshoestre
p1813
sV]person
p1814
g1814
sVharvesting
p1815
Vharvest
p1816
sVOn
p1817
Von
p1818
sVjutting
p1819
Vjut
p1820
sVclutches
p1821
Vclutch
p1822
sVemergency
p1823
g1823
sVOh
p1824
Voh
p1825
sVcouple
p1826
Vcouple
p1827
sVemanating
p1828
Vemanate
p1829
sVtoadstools
p1830
Vtoadstool
p1831
sVformal
p1832
g1832
sVmanhandling
p1833
Vmanhandle
p1834
sVstylist
p1835
g1835
sVchorus
p1836
Vchorus
p1837
sVindividuals
p1838
Vindividual
p1839
sVstylish
p1840
g1840
sVspins
p1841
g253
sVclipping
p1842
Vclip
p1843
sVspring
p1844
Vspring
p1845
sVbite-size
p1846
g1846
sVbounce
p1847
Vbounce
p1848
sVbouncy
p1849
g1849
sVpalm
p1850
g649
sVcurious
p1851
Vcuriou
p1852
sVpale
p1853
Vpale
p1854
sVcupped
p1855
Vcup
p1856
sVdating
p1857
g816
sVtemple
p1858
g1858
sVinserting
p1859
g993
sVbe
p1860
g1157
sVconcealer
p1861
g1861
sVbo
p1862
g1862
sVdrinkware
p1863
g1863
sVby
p1864
g1864
sVoiling
p1865
Voil
p1866
sVwildlife
p1867
g1867
sVwhiteboard
p1868
g1868
sVstraightened
p1869
g1115
sVwrinkled
p1870
Vwrinkle
p1871
sVgarbage
p1872
g1872
sVinto
p1873
g1873
sVYoung
p1874
Vyoung
p1875
sVinspects
p1876
Vinspect
p1877
sVharnessed
p1878
Vharness
p1879
sVtasting
p1880
g950
sVopend
p1881
g1881
sVsock
p1882
Vsock
p1883
sVsneaks
p1884
Vsneak
p1885
sVbridesmaids
p1886
Vbridesmaid
p1887
sVsuit
p1888
Vsuit
p1889
sVopens
p1890
g925
sVbutters
p1891
g798
sVhousekeeper
p1892
g1892
sVposter
p1893
g1893
sVatop
p1894
g1894
sVt-shirt
p1895
g1895
sVline
p1896
Vline
p1897
sVrelaxes
p1898
Vrelax
p1899
sVJeff
p1900
Vjeff
p1901
sVup
p1902
Vup
p1903
sVus
p1904
Vu
p1905
sVun
p1906
g1906
sVcustomers
p1907
Vcustomer
p1908
sVcontinuously
p1909
g1909
sVyelled
p1910
Vyell
p1911
sVTwine
p1912
Vtwine
p1913
sVpepperonis
p1914
Vpepperoni
p1915
sVchat
p1916
Vchat
p1917
sVphantom
p1918
g1918
sVfixing
p1919
Vfix
p1920
sVactors
p1921
Vactor
p1922
sVparakeet
p1923
g1923
sVswirl
p1924
g1371
sVsails
p1925
g60
sVsided
p1926
Vside
p1927
sVstrums
p1928
Vstrum
p1929
sVrobots
p1930
Vrobot
p1931
sVsides
p1932
g1927
sVlane
p1933
g1933
sVland
p1934
Vland
p1935
sVfighter
p1936
g1936
sVage
p1937
Vage
p1938
sVholes
p1939
g124
sVwalked
p1940
g1007
sVdow
p1941
Vdow
p1942
sVbeverage
p1943
g1943
sVfresh
p1944
Vfresh
p1945
sVhaving
p1946
g520
sVmelts
p1947
Vmelt
p1948
sVscratch
p1949
g775
sVsplashing
p1950
Vsplash
p1951
sVBeyonce
p1952
Vbeyonce
p1953
sVtotem
p1954
g1954
sVl[woman
p1955
g1955
sVweatherman
p1956
g1956
sVseemed
p1957
Vseem
p1958
sVyoung
p1959
g1959
sVoutwards
p1960
Voutward
p1961
sVpestering
p1962
Vpester
p1963
sVmanipulates
p1964
Vmanipulate
p1965
sVgarden
p1966
Vgarden
p1967
sVcontinues
p1968
Vcontinue
p1969
sVmixing
p1970
g308
sVanimals
p1971
Vanimal
p1972
sVdecorating
p1973
Vdecorate
p1974
sVmagic
p1975
g1975
sVtry
p1976
Vtry
p1977
sVbloody-faced
p1978
Vbloody-face
p1979
sVcar's
p1980
Vcar'
p1981
sVcopter
p1982
g1982
sVshrimps
p1983
Vshrimp
p1984
sVsphagetti
p1985
g1985
sVvideo
p1986
g1986
sVenclosed
p1987
Venclose
p1988
sVspaghetti
p1989
g1989
sVindex
p1990
Vindex
p1991
sVtwine
p1992
g1913
sVapparatus
p1993
Vapparatu
p1994
sVindian
p1995
g1995
sVlakadama
p1996
g1996
sVwached
p1997
Vwach
p1998
sVbird
p1999
g1999
sVwaling
p2000
Vwale
p2001
sVled
p2002
Vlead
p2003
sVleg
p2004
g266
sVlei
p2005
g2005
sVgathered
p2006
Vgather
p2007
sVdelivering
p2008
Vdeliver
p2009
sVStrips
p2010
g1100
sVlet
p2011
Vlet
p2012
sVPuppies
p2013
Vpuppy
p2014
sVsquirming
p2015
Vsquirm
p2016
sVvinegar
p2017
Vvinegar
p2018
sVgreat
p2019
g2019
sVengage
p2020
g1127
sVcte
p2021
g2021
sVsurvey
p2022
Vsurvey
p2023
sVopinion
p2024
g2024
sVmakes
p2025
Vmake
p2026
sVbeaver's
p2027
Vbeaver'
p2028
sVrollerskated
p2029
Vrollerskate
p2030
sVnibbling
p2031
Vnibble
p2032
sVstanding
p2033
Vstand
p2034
sVzip
p2035
Vzip
p2036
sVwhipping
p2037
Vwhip
p2038
sVnext
p2039
g2039
sVduplicate
p2040
Vduplicate
p2041
sVpencil
p2042
Vpencil
p2043
sVkey-board
p2044
g2044
sVplaughing
p2045
Vplaugh
p2046
sVbobbing
p2047
Vbob
p2048
sVcarrying
p2049
Vcarry
p2050
sVbaby
p2051
g486
sVdicing
p2052
Vdice
p2053
sVcasserole
p2054
Vcasserole
p2055
sVcustomer
p2056
g2056
sVballs
p2057
Vball
p2058
sVpracticing
p2059
Vpractice
p2060
sVathlete
p2061
g2061
sVTofu
p2062
Vtofu
p2063
sVthin
p2064
Vthin
p2065
sVdrill
p2066
g860
sVbeavers
p2067
Vbeaver
p2068
sVwedge
p2069
Vwedge
p2070
sVslid
p2071
Vslide
p2072
sVPolice
p2073
Vpolice
p2074
sVbent
p2075
g1520
sVprocess
p2076
Vprocess
p2077
sVlock
p2078
g790
sVrode
p2079
Vride
p2080
sVpieces
p2081
Vpiece
p2082
sVhigh
p2083
g2083
sVflours
p2084
Vflour
p2085
sVslit
p2086
Vslit
p2087
sVbend
p2088
g1520
sVslip
p2089
Vslip
p2090
sVpaws
p2091
g75
sVtrumpet
p2092
Vtrumpet
p2093
sVChristmas
p2094
Vchristma
p2095
sVSeveral
p2096
Vseveral
p2097
sVdestroying
p2098
Vdestroy
p2099
sVtightrope
p2100
g2100
sVanimal
p2101
g2101
sVswivels
p2102
g25
sVcontraption
p2103
g2103
sVyellowish
p2104
g2104
sVblocks
p2105
Vblock
p2106
sVhalter
p2107
Vhalter
p2108
sVtied
p2109
g676
sVdominos
p2110
Vdomino
p2111
sVnotebook
p2112
g2112
sVdemonstrating
p2113
Vdemonstrate
p2114
sVtier
p2115
Vtier
p2116
sVbronzing
p2117
Vbronze
p2118
sVcabbage
p2119
Vcabbage
p2120
sVwalksstopsand
p2121
g2121
sVtomato
p2122
g2122
sVcounter
p2123
Vcounter
p2124
sVrobot
p2125
g2125
sVOne
p2126
Vone
p2127
sVerasing
p2128
Verase
p2129
sVantelope
p2130
g2130
sVholds
p2131
g126
sVthigh
p2132
g2132
sVIngrediants
p2133
Vingrediant
p2134
sVspatula
p2135
g2135
sVflopped
p2136
Vflop
p2137
sVcuttng
p2138
g2138
sVplayer's
p2139
Vplayer'
p2140
sVswishes
p2141
Vswish
p2142
sVYuzu
p2143
Vyuzu
p2144
sVdecal
p2145
Vdecal
p2146
sVdegrees
p2147
Vdegree
p2148
sVsnipping
p2149
Vsnip
p2150
sVdock
p2151
Vdock
p2152
sVsnake
p2153
Vsnake
p2154
sVkiss
p2155
g1753
sVtraverses
p2156
g756
sVcage
p2157
g1742
sVbare-handed
p2158
Vbare-hand
p2159
sVcoriander
p2160
g2160
sVglassed
p2161
g121
sVscenic
p2162
g2162
sVsneezed
p2163
Vsneeze
p2164
sVsniffing
p2165
g664
sVfrittata
p2166
g2166
sVaccompanied
p2167
g1361
sVsneezes
p2168
g2164
sVtracer
p2169
g2169
sVglasses
p2170
g121
sVdoing
p2171
Vdo
p2172
sVsportsman
p2173
g2173
sVdroppped
p2174
Vdroppp
p2175
sVbooks
p2176
Vbook
p2177
sVwander
p2178
Vwander
p2179
sVMilla
p2180
Vmilla
p2181
sVbunched
p2182
Vbunch
p2183
sVdough-like
p2184
g2184
sVfrowns
p2185
Vfrown
p2186
sVshut
p2187
g1132
sVmango
p2188
g2188
sVtemps
p2189
Vtemp
p2190
sVgrilled
p2191
g1012
sVgraze
p2192
g430
sVMeet
p2193
Vmeet
p2194
sVsteering
p2195
Vsteer
p2196
sVlog
p2197
Vlog
p2198
sVchilli
p2199
g2199
sVspill
p2200
Vspill
p2201
sVdvd
p2202
g2202
sVpigs
p2203
Vpig
p2204
sVpudding
p2205
Vpud
p2206
sVrepeats
p2207
Vrepeat
p2208
sVspilt
p2209
g2201
sVblown
p2210
g378
sVyells
p2211
g1911
sVscene
p2212
g2212
sVstraining
p2213
Vstrain
p2214
sVslced
p2215
g2215
sVties
p2216
g676
sVowner
p2217
g2217
sVblows
p2218
g378
sVprank
p2219
Vprank
p2220
sVlatern
p2221
g2221
sVracks
p2222
Vrack
p2223
sVgoalee
p2224
g2224
sVsergeant
p2225
g2225
sVspaceship
p2226
g2226
sVlow
p2227
g2227
sVstomach
p2228
Vstomach
p2229
sVlot
p2230
g389
sVcrosswise
p2231
g2231
sVsteel
p2232
Vsteel
p2233
sVtrike
p2234
g2234
sVextraordinarily
p2235
g2235
sVdowel
p2236
g2236
sVrollercoaster
p2237
g2237
sVsteep
p2238
Vsteep
p2239
sVcollecting
p2240
Vcollect
p2241
sVgently
p2242
g2242
sVprawns
p2243
Vprawn
p2244
sVdefending
p2245
Vdefend
p2246
sVjug
p2247
Vjug
p2248
sVdemolishes
p2249
Vdemolish
p2250
sVdishes
p2251
Vdish
p2252
sVashore
p2253
g2253
sVsquawks
p2254
Vsquawk
p2255
sVscooping
p2256
g1529
sVsoap
p2257
Vsoap
p2258
sVpetals
p2259
Vpetal
p2260
sVfindertip
p2261
g2261
sVvise
p2262
Vvise
p2263
sVdevice
p2264
g2264
sVsegment
p2265
Vsegment
p2266
sVsocializing
p2267
Vsocialize
p2268
sVface
p2269
Vface
p2270
sVignited
p2271
g906
sVundersea
p2272
g2272
sVwounded
p2273
Vwound
p2274
sVpainting
p2275
Vpaint
p2276
sVirt
p2277
g2277
sVbring
p2278
g33
sVbiker
p2279
g2279
sVbikes
p2280
Vbike
p2281
sVbedroom
p2282
g2282
sVrough
p2283
Vrough
p2284
sVnarrates
p2285
Vnarrate
p2286
sVtaps
p2287
Vtap
p2288
sVroomba
p2289
g2289
sVhops
p2290
Vhop
p2291
sVjaw
p2292
Vjaw
p2293
sVridint
p2294
g2294
sVjar
p2295
Vjar
p2296
sVbuttons
p2297
Vbutton
p2298
sVtape
p2299
Vtape
p2300
sVpste
p2301
g2301
sVriding
p2302
g2080
sVgnaws
p2303
Vgnaw
p2304
sVhandle
p2305
g1738
sVlistened
p2306
g794
sVlucky
p2307
g2307
sVshaping
p2308
Vshape
p2309
sVstufs
p2310
Vstuf
p2311
sVstuff
p2312
g934
sVhandstand
p2313
g2313
sVraccoon-like
p2314
g2314
sVmotorcycle
p2315
g2315
sVcrocheting
p2316
g990
sVappliance
p2317
g2317
sVframe
p2318
Vframe
p2319
sVpacket
p2320
Vpacket
p2321
sVbreaddough
p2322
g2322
sVslanted
p2323
Vslant
p2324
sVskateboarding
p2325
Vskateboard
p2326
sVpacked
p2327
Vpack
p2328
sVdungeon
p2329
g2329
sVwire
p2330
g1140
sVsuperhero
p2331
g2331
sVinteracting
p2332
Vinteract
p2333
sVpistol
p2334
Vpistol
p2335
sVemail
p2336
g2336
sVends
p2337
Vend
p2338
sVbutts
p2339
Vbutt
p2340
sVstaring
p2341
Vstare
p2342
sVfigured
p2343
Vfigure
p2344
sVdrum
p2345
Vdrum
p2346
sVPOTATO
p2347
Vpotato
p2348
sVdogsledding
p2349
Vdogsled
p2350
sVramp
p2351
Vramp
p2352
sVmotor-cycle
p2353
g2353
sVdrug
p2354
Vdrug
p2355
sVrams
p2356
Vram
p2357
sVetc
p2358
g2358
sVdoorway
p2359
g2359
sVstreams
p2360
Vstream
p2361
sVCows
p2362
Vcow
p2363
sVvolley
p2364
Vvolley
p2365
sVpounces
p2366
Vpounce
p2367
sVGuinea
p2368
Vguinea
p2369
sVGirls
p2370
Vgirl
p2371
sVcd
p2372
g2372
sVpounced
p2373
g2367
sVlectern
p2374
g2374
sVpoured
p2375
Vpour
p2376
sVchalkboard
p2377
g2377
sVwaste
p2378
Vwaste
p2379
sVmaneuvers
p2380
g980
sVroasting
p2381
Vroast
p2382
sV8-balls
p2383
V8-ball
p2384
sVtoasting
p2385
g488
sVrunway
p2386
g2386
sVcompressions
p2387
Vcompression
p2388
sVbathtub
p2389
g2389
sVfielding
p2390
Vfield
p2391
sVstuffing
p2392
g934
sVdog-sledding
p2393
Vdog-sled
p2394
sVrips
p2395
Vrip
p2396
sVsits
p2397
g962
sVskateboarders
p2398
Vskateboarder
p2399
sVdigging
p2400
Vdig
p2401
sVball
p2402
g2058
sVdusk
p2403
Vdusk
p2404
sVPotatoes
p2405
Vpotatoe
p2406
sVMedical
p2407
Vmedical
p2408
sVdrink
p2409
Vdrink
p2410
sVPIECES
p2411
g2082
sVrobotic
p2412
g2412
sVdust
p2413
Vdust
p2414
sVbroccoli
p2415
g2415
sVfielder
p2416
g2416
sVoff
p2417
g2417
sVshotgun
p2418
Vshotgun
p2419
sVcolour
p2420
Vcolour
p2421
sVpatterns
p2422
Vpattern
p2423
sVdrawing
p2424
Vdraw
p2425
sVflesh
p2426
Vflesh
p2427
sVlathering
p2428
Vlather
p2429
sVSumo
p2430
Vsumo
p2431
sVspinner
p2432
g2432
sVarrest
p2433
Varrest
p2434
sVcosmetics
p2435
Vcosmetic
p2436
sVcombing
p2437
Vcomb
p2438
sVwet
p2439
Vwet
p2440
sVchecking
p2441
g227
sVmarzipan
p2442
g2442
sVcobble
p2443
Vcobble
p2444
sVfive
p2445
g2445
sVdesk
p2446
g2446
sVtick
p2447
Vtick
p2448
sVpier
p2449
g2449
sVcrisp
p2450
Vcrisp
p2451
sVonion
p2452
g2452
sVsleds
p2453
Vsledge
p2454
sVCreed
p2455
Vcree
p2456
sVgarage
p2457
Vgarage
p2458
sVhabitat
p2459
g2459
sV'Street
p2460
V'street
p2461
sVActor
p2462
Vactor
p2463
sVgymnastics
p2464
Vgymnastic
p2465
sVhissing
p2466
Vhiss
p2467
sVtransport
p2468
g653
sVkangaroom
p2469
g2469
sVjalapeno
p2470
g2470
sVsketching
p2471
Vsketch
p2472
sVdoes
p2473
g2172
sVsaucepan
p2474
g2474
sVstairway
p2475
g2475
sVblowing
p2476
g378
sVselecting
p2477
g1422
sVParmesan
p2478
Vparmesan
p2479
sVbeneath
p2480
g2480
sVhiding
p2481
g196
sViris
p2482
Viri
p2483
sVsister
p2484
g2484
sVdrumming
p2485
g2346
sVasks
p2486
g422
sVseeds
p2487
g1748
sVswimming
p2488
Vswim
p2489
sVletters
p2490
g317
sVthree
p2491
g2491
sVscreamed
p2492
g192
sVerect
p2493
Verect
p2494
sVswimmers
p2495
Vswimmer
p2496
sVcradling
p2497
Vcradle
p2498
sVhousing
p2499
Vhouse
p2500
sVbump
p2501
g911
sVmuch
p2502
g2502
sVrhythmic
p2503
g2503
sVfunnel
p2504
Vfunnel
p2505
sVdescaling
p2506
Vdescale
p2507
sVconstruction
p2508
g2508
sVgrate
p2509
Vgrate
p2510
sVdelivers
p2511
g2009
sVsuperhuman
p2512
g2512
sVtossed
p2513
Vtoss
p2514
sVplaces
p2515
Vplace
p2516
sVharvester
p2517
g2517
sVsmooth
p2518
Vsmooth
p2519
sVtriumphant
p2520
g2520
sVplaced
p2521
g2516
sVtosses
p2522
g2514
sVproblem
p2523
g2523
sVnurses
p2524
g1394
sVrubble
p2525
g2525
sVslowing
p2526
g1016
sVagains
p2527
Vagain
p2528
sVcutomer
p2529
g2529
sVplanting
p2530
g1463
sVBeyonce's
p2531
Vbeyonce'
p2532
sVgoalkeeper
p2533
g2533
sVpenciled
p2534
Vpencile
p2535
sVPage
p2536
Vpage
p2537
sVSouth
p2538
Vsouth
p2539
sVghost
p2540
Vghost
p2541
sVbatting
p2542
Vbat
p2543
sVPyrex
p2544
Vpyrex
p2545
sVannouncer
p2546
g2546
sVcompete
p2547
g231
sVsearched
p2548
Vsearch
p2549
sVrural
p2550
g2550
sVtrims
p2551
Vtrim
p2552
sVswirls
p2553
g1371
sVchili
p2554
g2554
sVShakkira
p2555
Vshakkira
p2556
sVspit-up
p2557
g2557
sVuncorking
p2558
Vuncork
p2559
sVbooties
p2560
Vbooty
p2561
sVdefecating
p2562
Vdefecate
p2563
sVsped
p2564
g2564
sVoff-road
p2565
g2565
sVmanis
p2566
Vmani
p2567
sVblanket
p2568
Vblanket
p2569
sVwomen's
p2570
Vwomen'
p2571
sVdriver's
p2572
Vdriver'
p2573
sVspecial
p2574
g2574
sVpince
p2575
g2575
sVwhisk
p2576
Vwhisk
p2577
sVkithen
p2578
g2578
sVurinating
p2579
Vurinate
p2580
sVmath
p2581
g2581
sVPanda
p2582
Vpanda
p2583
sVtriumph
p2584
Vtriumph
p2585
sVchew
p2586
g1337
sVbubbling
p2587
g1249
sVchef
p2588
g2588
sVhors
p2589
Vhor
p2590
sVphonen
p2591
g2591
sVpanda
p2592
g2592
sVmachines
p2593
g150
sVserrated
p2594
Vserrate
p2595
sVnakhi
p2596
g2596
sVPersian
p2597
Vpersian
p2598
sVabove
p2599
g2599
sVsimultaneously
p2600
g2600
sVsinks
p2601
g23
sVfestive
p2602
g2602
sVwrapping
p2603
g1631
sVbookcase
p2604
g2604
sVpursuit
p2605
g2605
sVcelebration
p2606
g2606
sVhairdo
p2607
g2607
sVLabrador
p2608
Vlabrador
p2609
sVitems
p2610
Vitem
p2611
sVsmoke
p2612
Vsmoke
p2613
sVbrowsing
p2614
Vbrowse
p2615
sVotters
p2616
Votter
p2617
sVangrily
p2618
g2618
sVbra
p2619
g2619
sVplot
p2620
Vplot
p2621
sVplow
p2622
g1548
sVReporter
p2623
Vreporter
p2624
sValligator
p2625
g2625
sVgloss
p2626
Vgloss
p2627
sVbundles
p2628
Vbundle
p2629
sVmoonwalking
p2630
Vmoonwalk
p2631
sVprogram
p2632
g2632
sVseparated
p2633
Vseparate
p2634
sVmeowed
p2635
Vmeow
p2636
sVscary
p2637
g2637
sVpierced
p2638
Vpierce
p2639
sVLOL
p2640
Vlol
p2641
sVseparates
p2642
g2634
sVblocking
p2643
g2106
sVbunnies
p2644
Vbunny
p2645
sVtaunts
p2646
Vtaunt
p2647
sVcrest
p2648
g2648
sVwork
p2649
g463
sVworm
p2650
Vworm
p2651
sVcuddly
p2652
g2652
sVcuddle
p2653
Vcuddle
p2654
sVingredents
p2655
Vingredent
p2656
sVelbow
p2657
Velbow
p2658
sVcrackers
p2659
Vcracker
p2660
sVcans
p2661
Vcan
p2662
sVStanding
p2663
g2034
sVfaked
p2664
g754
sVTarsier
p2665
Vtarsier
p2666
sVacrobatic
p2667
g2667
sVWelsh
p2668
Vwelsh
p2669
sVnuts
p2670
Vnut
p2671
sVfondant
p2672
g2672
sVvery
p2673
g2673
sVinterview
p2674
g1583
sVfudge
p2675
Vfudge
p2676
sVpizza
p2677
g2677
sVlad
p2678
g2678
sVafter
p2679
g2679
sVlay
p2680
g2680
sVEyre
p2681
Veyre
p2682
sVlat
p2683
g2683
sVlap
p2684
Vlap
p2685
sVgreet
p2686
Vgreet
p2687
sVwriggling
p2688
Vwriggle
p2689
sVgreen
p2690
g2690
sVambulance
p2691
g2691
sVdiapered
p2692
Vdiaper
p2693
sVorder
p2694
Vorder
p2695
sVoffice
p2696
g2696
sVtricked
p2697
g1318
sVsludge
p2698
g2698
sVticket
p2699
Vticket
p2700
sVflute-like
p2701
g2701
sVavocado
p2702
g2702
sVcarton
p2703
g2703
sVeventually
p2704
g2704
sVthem
p2705
g2705
sVsafe
p2706
g2706
sVcollide
p2707
g1611
sVbreak
p2708
Vbreak
p2709
sVband
p2710
Vband
p2711
sVgiraffe
p2712
g2712
sVsack
p2713
Vsack
p2714
sVthey
p2715
g2715
sVbank
p2716
g2716
sVbread
p2717
g1660
sVrocky
p2718
g2718
sVpedastal
p2719
g2719
sVascends
p2720
Vascend
p2721
sValternately
p2722
g2722
sVrocks
p2723
Vrock
p2724
sVpuppet
p2725
g2725
sVfeeds
p2726
Vfeed
p2727
sVlifted
p2728
g459
sVkneels
p2729
g27
sVlogs
p2730
g2198
sVdumping
p2731
g207
sVbraiding
p2732
Vbraid
p2733
sVprawn
p2734
g2734
sVsled
p2735
g2735
sVlifter
p2736
g2736
sVlogo
p2737
g2737
sVflock
p2738
Vflock
p2739
sVmotorized
p2740
Vmotorize
p2741
sVvehicle's
p2742
Vvehicle'
p2743
sVsprints
p2744
Vsprint
p2745
sVburlap
p2746
g2746
sVcameras
p2747
Vcamera
p2748
sVtrainers
p2749
Vtrainer
p2750
sVbottles-milk
p2751
g2751
sVmedicine
p2752
g2752
sVforth
p2753
g2753
sVsliding
p2754
g2072
sVbarrier
p2755
g2755
sVpeople's
p2756
Vpeople'
p2757
sVforcibly
p2758
g2758
sVlollipop
p2759
g2759
sVYakati
p2760
Vyakati
p2761
sVcreated
p2762
Vcreate
p2763
sVcreates
p2764
g2763
sVlicked
p2765
g1497
sVchopped
p2766
g716
sVchased
p2767
g1766
sVanother
p2768
g2768
sVthick
p2769
g2769
sVelectronic
p2770
g2770
sVillustrate
p2771
Villustrate
p2772
sVcrunches
p2773
Vcrunch
p2774
sVswatting
p2775
Vswat
p2776
sVelevator
p2777
g2777
sVdogs
p2778
g386
sVhappily
p2779
g2779
sVcereal
p2780
g2780
sVchases
p2781
g1766
sVtarget
p2782
Vtarget
p2783
sVkung-fu
p2784
g2784
sVseated
p2785
Vseat
p2786
sViron
p2787
Viron
p2788
sVtackled
p2789
Vtackle
p2790
sVvegatables
p2791
Vvegatable
p2792
sVgiraffes
p2793
Vgiraffe
p2794
sVsportsmen
p2795
g2795
sVmanner
p2796
g2796
sVcontents
p2797
Vcontent
p2798
sVladen
p2799
g1756
sVlatter
p2800
g2800
sVpractices
p2801
g2060
sVswims
p2802
g2489
sVcircles
p2803
Vcircle
p2804
sVgravy
p2805
g2805
sVdisembarking
p2806
Vdisembark
p2807
sVMeat
p2808
Vmeat
p2809
sVlong-eared
p2810
Vlong-ear
p2811
sVLucy
p2812
Vlucy
p2813
sVexercised
p2814
Vexercise
p2815
sVcircled
p2816
g2804
sVsoaping
p2817
g2258
sVSuryanamaskar
p2818
Vsuryanamaskar
p2819
sVduckling
p2820
Vduckle
p2821
sVoutmaneuvering
p2822
Voutmaneuver
p2823
sVsun
p2824
Vsun
p2825
sVfitted
p2826
g190
sVdredges
p2827
Vdredge
p2828
sVlense
p2829
g2829
sVenjoyed
p2830
Venjoy
p2831
sVtoast
p2832
g488
sVforaging
p2833
Vforage
p2834
sVKittens
p2835
Vkitten
p2836
sVblading
p2837
Vblade
p2838
sVgoalie
p2839
g2839
sVsews
p2840
Vsew
p2841
sVdo
p2842
g2172
sVtracers
p2843
Vtracer
p2844
sVrotated
p2845
Vrotate
p2846
sVbody-boarding
p2847
Vbody-board
p2848
sVnasty
p2849
g2849
sVruns
p2850
Vrun
p2851
sVbreak-dancing
p2852
Vbreak-dance
p2853
sVcovering
p2854
g1613
sVscrubber
p2855
g2855
sVSome-one
p2856
Vsome-one
p2857
sVsteak
p2858
g2858
sVsteal
p2859
Vsteal
p2860
sVscrubbed
p2861
Vscrub
p2862
sVJackson
p2863
Vjackson
p2864
sVobserves
p2865
Vobserve
p2866
sVclaymation
p2867
g2867
sVlemonade
p2868
g2868
sVcattle
p2869
g2869
sVtechniques
p2870
Vtechnique
p2871
sVyellowish-brown
p2872
g2872
sVaway
p2873
g2873
sVafloat
p2874
g2874
sVgentleman
p2875
g2875
sVWater
p2876
Vwater
p2877
sVdrawn
p2878
g2425
sVencounters
p2879
Vencounter
p2880
sVslugs
p2881
Vslug
p2882
sVrope-stage
p2883
g2883
sVwe
p2884
g2884
sVmoonwalks
p2885
Vmoonwalk
p2886
sVmincing
p2887
Vmince
p2888
sVhandful
p2889
g2889
sVWeird
p2890
Vweird
p2891
sVpackages
p2892
g1215
sVkitchen
p2893
g2893
sVreceived
p2894
Vreceive
p2895
sVcot
p2896
g2896
sVcow
p2897
g2363
sVstrummed
p2898
g1929
sVmachete
p2899
g2899
sVreceives
p2900
g2895
sVreceiver
p2901
g2901
sVDawn
p2902
Vdawn
p2903
sVdisappears
p2904
Vdisappear
p2905
sVpeacefully
p2906
g2906
sVgarnishing
p2907
Vgarnish
p2908
sVtrunk
p2909
g2909
sVheadlights
p2910
Vheadlight
p2911
sVrakes
p2912
Vrake
p2913
sVChopped
p2914
g716
sVrelaxing
p2915
g1899
sVporing
p2916
Vpore
p2917
sVattacker
p2918
g2918
sVapplied
p2919
Vapply
p2920
sVlaunches
p2921
g605
sVair
p2922
Vair
p2923
sVaim
p2924
Vaim
p2925
sVDried
p2926
g147
sVentertains
p2927
Ventertain
p2928
sVtraditonal
p2929
g2929
sVaid
p2930
Vaid
p2931
sVvoice
p2932
Vvoice
p2933
sVovertaking
p2934
Vovertake
p2935
sVlaunched
p2936
g605
sVmistake
p2937
Vmistake
p2938
sVsouse
p2939
Vsouse
p2940
sVRoomba
p2941
Vroomba
p2942
sVplateful
p2943
g2943
sVskipping
p2944
Vskip
p2945
sVbuttering
p2946
g798
sVcone
p2947
Vcone
p2948
sVlaughting
p2949
Vlaught
p2950
sVsoldier
p2951
Vsoldier
p2952
sVperform
p2953
Vperform
p2954
sVapparently
p2955
g2955
sVplated
p2956
Vplait
p2957
sVdescend
p2958
Vdescend
p2959
sVincorrectly
p2960
g2960
sVplates
p2961
g358
sVbunny
p2962
g2962
sVwheel
p2963
g1734
sVrail
p2964
g51
sVrain
p2965
g4
sVhand
p2966
g978
sVkept
p2967
g178
sVhopping
p2968
g2291
sVAirways
p2969
Vairway
p2970
sVhuddling
p2971
Vhuddle
p2972
sVudon
p2973
g2973
sVfoil-lined
p2974
Vfoil-line
p2975
sVgyrating
p2976
Vgyrate
p2977
sVoff-camera
p2978
g2978
sVthe
p2979
g2979
sVindividual's
p2980
Vindividual'
p2981
sVmusical
p2982
g2982
sVphoto
p2983
g2983
sVtaxied
p2984
Vtaxi
p2985
sVclamped
p2986
Vclamp
p2987
sVadding
p2988
Vadd
p2989
sVflooring
p2990
g636
sVcigarette-lighter
p2991
g2991
sVphotographer
p2992
g2992
sVHundreds
p2993
Vhundred
p2994
sVspread
p2995
g1403
sVboard
p2996
g1639
sVphotographed
p2997
Vphotograph
p2998
sVboxed
p2999
Vbox
p3000
sVAlice
p3001
Valice
p3002
sVcaps
p3003
Vcap
p3004
sVboxer
p3005
g3005
sVcape
p3006
g3006
sVWind
p3007
g180
sVflavoring
p3008
Vflavore
p3009
sVnight
p3010
g3010
sVsecurity
p3011
g3011
sVcooled
p3012
Vcool
p3013
sVescaltor
p3014
g3014
sVlashes
p3015
Vlash
p3016
sVtramplines
p3017
Vtrampline
p3018
sVTiny
p3019
Vtiny
p3020
sVborn
p3021
g3021
sVLee
p3022
Vlee
p3023
sVnuzzles
p3024
Vnuzzle
p3025
sVpurple
p3026
g3026
sVnuzzled
p3027
g3025
sVasking
p3028
g422
sVBieber
p3029
Vbieber
p3030
sVbeating
p3031
Vbeat
p3032
sVSchool
p3033
Vschool
p3034
sVpeel
p3035
Vpeel
p3036
sVpeed
p3037
Vpee
p3038
sVpees
p3039
g3038
sVpost
p3040
Vpost
p3041
sVwoamn
p3042
g3042
sVbreaded
p3043
g1660
sVbanked
p3044
Vdraft
p3045
sVdiner
p3046
g3046
sVnewspapers
p3047
Vnewspaper
p3048
sVsizzling
p3049
Vsizzle
p3050
sVoctopus
p3051
Voctopu
p3052
sVfloat
p3053
g1353
sVloin
p3054
g3054
sVcapped
p3055
g3004
sVbitting
p3056
g937
sVbalanced
p3057
Vbalance
p3058
sVamidst
p3059
g3059
sVtumblers
p3060
Vtumbler
p3061
sVwad
p3062
Vwad
p3063
sVfight
p3064
g1595
sVway
p3065
g3065
sVwax
p3066
Vwax
p3067
sVwas
p3068
g1157
sVwar
p3069
g3069
sVRunners
p3070
Vrunner
p3071
sVlowest
p3072
g3072
sVstired
p3073
Vstire
p3074
sVsnowy
p3075
g3075
sVcrys
p3076
Vcry
p3077
sVelderly
p3078
g3078
sVveterinarian
p3079
g3079
sVRoni
p3080
Vroni
p3081
sVmuscular
p3082
g3082
sVmole
p3083
g3083
sVbaguette
p3084
g3084
sVdimly
p3085
g3085
sVdying
p3086
Vdie
p3087
sVinterested
p3088
Vinterest
p3089
sVholding
p3090
g126
sVtest
p3091
Vtest
p3092
sVfrolic
p3093
Vfrolic
p3094
sVscored
p3095
g393
sVjuices
p3096
Vjuice
p3097
sVmechanical
p3098
g3098
sVscores
p3099
g393
sVtroupe
p3100
Vtroupe
p3101
sVpaces
p3102
g1150
sVflag
p3103
Vflag
p3104
sVtogether
p3105
g3105
sVbeds
p3106
Vbed
p3107
sVreception
p3108
g3108
sVgutting
p3109
Vgut
p3110
sVChicken
p3111
Vchicken
p3112
sVsongs
p3113
Vsong
p3114
sVswitched
p3115
Vswitch
p3116
sVdance
p3117
Vdance
p3118
sVParsley
p3119
Vparsley
p3120
sVhorseback
p3121
g3121
sVswitches
p3122
g3116
sVbattle
p3123
Vbattle
p3124
sVtoothpick
p3125
g3125
sVlayers
p3126
Vlayer
p3127
sVgrape
p3128
g3128
sVflash
p3129
Vflash
p3130
sVBolt
p3131
Vbolt
p3132
sVrhythm
p3133
g3133
sVHedge
p3134
Vhedge
p3135
sVjogged
p3136
Vjog
p3137
sVbrown
p3138
g1459
sVprotective
p3139
g3139
sVpull-tab
p3140
g3140
sVJoker
p3141
Vjoker
p3142
sVkitten
p3143
g2836
sVblast
p3144
g811
sVbrows
p3145
Vbrow
p3146
sVaggressively
p3147
g3147
sVpresented
p3148
Vpresent
p3149
sVturns
p3150
g952
sVgun
p3151
Vgun
p3152
sVgum
p3153
Vgum
p3154
sVpuppeteer
p3155
g3155
sVevades
p3156
Vevade
p3157
sVguitars
p3158
Vguitar
p3159
sVsloths
p3160
Vsloth
p3161
sVsidewalk
p3162
g3162
sVwoven
p3163
Vweave
p3164
sVupper
p3165
g3165
sVyolks
p3166
Vyolk
p3167
sVprairie
p3168
g3168
sVRice
p3169
g354
sVpenetrated
p3170
Vpenetrate
p3171
sVappear
p3172
Vappear
p3173
sVwolfs
p3174
Vwolf
p3175
sVpeeld
p3176
g3176
sVuniform
p3177
Vuniform
p3178
sVpeels
p3179
g3036
sVDuring
p3180
Vdure
p3181
sVwheelies
p3182
Vwheely
p3183
sVsupporting
p3184
g598
sVexplosion
p3185
g3185
sVLoris
p3186
Vlori
p3187
sVpeeled
p3188
g3036
sVLorie
p3189
Vlorie
p3190
sVsmearing
p3191
Vsmear
p3192
sVchainlink
p3193
g3193
sVsieve
p3194
Vsieve
p3195
sVhoops
p3196
Vhoop
p3197
sVpeeler
p3198
g3198
sVchange
p3199
Vchange
p3200
sVchef's
p3201
Vchef'
p3202
sVflames
p3203
Vflame
p3204
sVexiting
p3205
g1204
sVbangs
p3206
Vbang
p3207
sVpillow
p3208
Vpillow
p3209
sVhiking
p3210
Vhike
p3211
sVuphill
p3212
g3212
sVsnowboard
p3213
g3213
sVseashore
p3214
g3214
sVfirearm
p3215
g3215
sVmarket
p3216
Vmarket
p3217
sVstreetcar
p3218
g3218
sVTiger
p3219
Vtiger
p3220
sVlive
p3221
Vlive
p3222
sVshaken
p3223
g568
sVselects
p3224
g1422
sVintently
p3225
g3225
sVentrance
p3226
Ventrance
p3227
sVRice-A-Roni
p3228
Vrice-a-roni
p3229
sVcountertop
p3230
g3230
sVtowers
p3231
Vtower
p3232
sVMount
p3233
Vmount
p3234
sVslinky
p3235
g3235
sVbowler
p3236
g3236
sVcar
p3237
g3237
sVcap
p3238
g3004
sVcat
p3239
Vcat
p3240
sVcan
p3241
g1083
sVcab
p3242
g3242
sVWyclef
p3243
Vwyclef
p3244
sVhalave
p3245
g3245
sVheart
p3246
Vheart
p3247
sVgrassy
p3248
g3248
sVchip
p3249
Vchip
p3250
sVpicnic-like
p3251
g3251
sVheard
p3252
Vhear
p3253
sVchin
p3254
Vchin
p3255
sVanteater
p3256
g3256
sVclothing
p3257
Vclothe
p3258
sVpong
p3259
Vpong
p3260
sVdiscussion
p3261
g3261
sVspreads
p3262
g1403
sVfreezer
p3263
g3263
sVurinates
p3264
g2580
sVunrealistically
p3265
g3265
sVurinated
p3266
g2580
sVarmies
p3267
Varmy
p3268
sVproduct
p3269
g3269
sVstaircase
p3270
g3270
sVponies
p3271
Vpony
p3272
sVuse
p3273
g3273
sVpush-up
p3274
g3274
sVdisgusted
p3275
Vdisgust
p3276
sVpasting
p3277
Vpaste
p3278
sVMartin
p3279
Vmartin
p3280
sVModel
p3281
g651
sVlifting
p3282
g459
sVCricketer
p3283
Vcricketer
p3284
sVShih
p3285
Vshih
p3286
sVcrepe
p3287
Vcrepe
p3288
sVwhenever
p3289
g3289
sVPillsbury
p3290
Vpillsbury
p3291
sVbaseballs
p3292
Vbaseball
p3293
sVserving
p3294
Vserve
p3295
sVperfoming
p3296
Vperfome
p3297
sVcolt
p3298
g3298
sVhaircut
p3299
g3299
sVdisplayed
p3300
Vdisplay
p3301
sVnitrogen
p3302
g3302
sVcongregating
p3303
Vcongregate
p3304
sVcold
p3305
Vcold
p3306
sVBalboa
p3307
Vbalboa
p3308
sVtending
p3309
Vtend
p3310
sVrooftop
p3311
g3311
sVeighths
p3312
Veighth
p3313
sVcurly
p3314
g3314
sVholing
p3315
g124
sVcurls
p3316
g1224
sVwindow
p3317
Vwindow
p3318
sVRC
p3319
Vrc
p3320
sVshowered
p3321
g282
sVBroccoli
p3322
Vbroccoli
p3323
sVfeats
p3324
Vfeat
p3325
sVhalt
p3326
g3326
sVrockface
p3327
g3327
sVscaling
p3328
Vscale
p3329
sVtails
p3330
Vtail
p3331
sVprunes
p3332
Vprune
p3333
sVhalf
p3334
g3334
sVnot
p3335
g3335
sVhall
p3336
g3336
sVgalloping
p3337
g1448
sVstreaks
p3338
Vstreak
p3339
sVdrop
p3340
Vdrop
p3341
sVMincemeat
p3342
Vmincemeat
p3343
sVintrigued
p3344
Vintrigue
p3345
sVbursts
p3346
g881
sVMilk
p3347
Vmilk
p3348
sVen
p3349
g3349
sVfired
p3350
g1720
sVgoose
p3351
Vgoose
p3352
sVsoy
p3353
g3353
sVfires
p3354
g1720
sVkanu
p3355
g3355
sVamusement
p3356
g3356
sVhand-held
p3357
g3357
sVshown
p3358
g275
sVopened
p3359
g925
sVspace
p3360
Vspace
p3361
sVlooking
p3362
Vlook
p3363
sVnavigating
p3364
Vnavigate
p3365
sVreceiving
p3366
g2895
sVambushing
p3367
Vambush
p3368
sVshows
p3369
g275
sVcars
p3370
Vcar
p3371
sVcart
p3372
g3372
sVlugging
p3373
Vlug
p3374
sVpompons
p3375
Vpompon
p3376
sVcard
p3377
Vcard
p3378
sVpurring
p3379
Vpurr
p3380
sVElvis
p3381
Velvi
p3382
sVtennis
p3383
Vtenni
p3384
sVshears
p3385
Vshear
p3386
sVstriking
p3387
g109
sVThere
p3388
Vthere
p3389
sVflipping
p3390
g835
sVdirectly
p3391
g3391
sVrind
p3392
g3392
sVring
p3393
g391
sVdrove
p3394
g998
sVsize
p3395
Vsize
p3396
sVsheep
p3397
g3397
sVsheer
p3398
Vsheer
p3399
sVsheet
p3400
Vsheet
p3401
sVjugs
p3402
g2248
sVcaught
p3403
Vcatch
p3404
sVnational
p3405
g3405
sVfriend
p3406
Vfriend
p3407
sVpoms
p3408
Vpom
p3409
sVbi-cycle
p3410
g3410
sVflowers
p3411
Vflower
p3412
sVthan
p3413
g3413
sVbrother`s
p3414
Vbrother`
p3415
sVtelevision
p3416
g3416
sVrugged
p3417
Vrug
p3418
sVtransferred
p3419
Vtransfer
p3420
sVkarate
p3421
g3421
sVapples
p3422
Vapple
p3423
sVfruits
p3424
Vfruit
p3425
sVgrooms
p3426
g1081
sVsaute
p3427
g3427
sVslam
p3428
Vslam
p3429
sVpeanut
p3430
g3430
sVMail
p3431
Vmail
p3432
sVbreakfast
p3433
Vbreakfast
p3434
sVslab
p3435
g1657
sVlumpy
p3436
g3436
sVterrific
p3437
g3437
sVequipment
p3438
g3438
sVbreakdances
p3439
Vbreakdance
p3440
sVramata
p3441
g3441
sVchopsticks
p3442
Vchopstick
p3443
sVtopping
p3444
g497
sVsledge
p3445
g2454
sValgebraic
p3446
g3446
sVfore
p3447
g3447
sVsauteed
p3448
Vsautee
p3449
sVsprinting
p3450
g2745
sVattempting
p3451
Vattempt
p3452
sVwackes
p3453
Vwacke
p3454
sVsunset
p3455
g3455
sVclearing
p3456
Vclear
p3457
sVfirehat
p3458
g3458
sVFifth
p3459
Vfifth
p3460
sVWet
p3461
g2440
sVground
p3462
Vgrind
p3463
sVsnack
p3464
Vsnack
p3465
sVstair
p3466
g3466
sVbreadcrumbs
p3467
Vbreadcrumb
p3468
sVsnake's
p3469
Vsnake'
p3470
sVonly
p3471
g3471
sVstain
p3472
Vstain
p3473
sVpumpkin
p3474
g3474
sVpices
p3475
Vpice
p3476
sVCaged
p3477
g1742
sVcelebrate
p3478
g735
sVskinning
p3479
Vskin
p3480
sVleather
p3481
Vleather
p3482
sVritually
p3483
g3483
sVhusband
p3484
Vhusband
p3485
sVhoed
p3486
g142
sVconcert
p3487
g3487
sVburst
p3488
g881
sVwhisked
p3489
g2577
sVasleep
p3490
g3490
sVsport
p3491
Vsport
p3492
sVfascinated
p3493
Vfascinate
p3494
sV3
p3495
g3495
sVbetween
p3496
g3496
sVkneads
p3497
g704
sVwhipped
p3498
g2038
sVturle
p3499
g3499
sVintsruments
p3500
Vintsrument
p3501
sVsmashed
p3502
g1692
sVhurts
p3503
Vhurt
p3504
sVattaches
p3505
Vattach
p3506
sVbicyling
p3507
Vbicyle
p3508
sVwheely
p3509
g3509
sVhaunch
p3510
g3510
sVArsenio
p3511
Varsenio
p3512
sVwallaby
p3513
g3513
sVwheels
p3514
g1734
sVpureed
p3515
Vpuree
p3516
sVcomes
p3517
g329
sVnearby
p3518
g3518
sVDeath
p3519
Vdeath
p3520
sVSmoke
p3521
g2613
sVdune-buggy
p3522
g3522
sVwreaths
p3523
Vwreath
p3524
sVlearning
p3525
Vlearn
p3526
sVsledding
p3527
Vsled
p3528
sVcycling
p3529
Vcycle
p3530
sVjerks
p3531
Vjerk
p3532
sVFloyd
p3533
Vfloyd
p3534
sVDoctors
p3535
Vdoctor
p3536
sVjerky
p3537
g3537
sVSix
p3538
Vsix
p3539
sVfours
p3540
Vfour
p3541
sVlanguage
p3542
g3542
sVrubs
p3543
Vrub
p3544
sVstems
p3545
Vstem
p3546
sVmight
p3547
Vmight
p3548
sVperson'a
p3549
g3549
sVtrick
p3550
g1318
sVroughing
p3551
g2284
sVperson's
p3552
Vperson'
p3553
sVspooned
p3554
g909
sVtilling
p3555
Vtill
p3556
sVone-armed
p3557
Vone-arm
p3558
sVsoil
p3559
Vsoil
p3560
sVinflatable
p3561
g3561
sVskatboarded
p3562
Vskatboard
p3563
sVcommander
p3564
g3564
sVstewardess
p3565
Vstewardes
p3566
sVbeaver
p3567
g2068
sVhens
p3568
Vhen
p3569
sVfloating
p3570
g1353
sVgenerously
p3571
g3571
sVmoneky
p3572
g3572
sVmedic
p3573
g3573
sVangered
p3574
Vanger
p3575
sVfigures
p3576
g2344
sVfinish
p3577
Vfinish
p3578
sVCracker
p3579
Vcracker
p3580
sVfoal
p3581
Vfoal
p3582
sVfoam
p3583
Vfoam
p3584
sVfruit
p3585
g3425
sVcinder
p3586
Vcinder
p3587
sVromps
p3588
Vromp
p3589
sVpassing
p3590
g1385
sVsevers
p3591
Vsever
p3592
sVcharges
p3593
Vcharge
p3594
sVsevere
p3595
g3595
sVpuree
p3596
g3596
sVtaxi
p3597
g2985
sVlivestock
p3598
g3598
sVtossing
p3599
g2514
sVdancers
p3600
Vdancer
p3601
sVshouts
p3602
Vshout
p3603
sVsweeping
p3604
Vsweep
p3605
sVwrecks
p3606
Vwreck
p3607
sVtouch
p3608
g343
sVspeed
p3609
g245
sVsnowboarder
p3610
g3610
sVPossibly
p3611
Vpossibly
p3612
sVthinking
p3613
Vthink
p3614
sVmirrored
p3615
Vmirror
p3616
sVdesktop
p3617
g3617
sVtreatment
p3618
g3618
sVstruck
p3619
g109
sVswim
p3620
g2489
sVpropped
p3621
Vprop
p3622
sVspectacular
p3623
g3623
sVrules
p3624
Vrule
p3625
sVstools
p3626
Vstool
p3627
sVlistening
p3628
g794
sVusing
p3629
Vused
p3630
sVpsp
p3631
g3631
sVlady
p3632
g3632
sVfryer
p3633
g3633
sVrear
p3634
Vrear
p3635
sVbarbells
p3636
Vbarbell
p3637
sVconversing
p3638
Vconverse
p3639
sVgreeting
p3640
g2687
sVroll
p3641
g404
sVdislodges
p3642
Vdislodge
p3643
sVt
p3644
g3644
sVvegtables
p3645
Vvegtable
p3646
sVhacks
p3647
Vhack
p3648
sVrecorded
p3649
g858
sVwelsch
p3650
g3650
sVplatic
p3651
g3651
sVwheat
p3652
g3652
sVpylons
p3653
Vpylon
p3654
sVbusiness
p3655
Vbusines
p3656
sVsixth
p3657
g3657
sVchefs
p3658
Vchef
p3659
sVstrained
p3660
g2214
sVseducing
p3661
Vseduce
p3662
sVsniffs
p3663
g664
sVassemble
p3664
Vassemble
p3665
sVstrainer
p3666
g3666
sVguides
p3667
Vguide
p3668
sVthrow
p3669
Vthrow
p3670
sVcheff
p3671
g3671
sVpaints
p3672
g2276
sVchop
p3673
g716
sVwolf
p3674
g3175
sVprocessor
p3675
g3675
sVheavy
p3676
g3676
sVrolling
p3677
g404
sV'n
p3678
g3678
sVresuscitate
p3679
Vresuscitate
p3680
sVstare
p3681
g2342
sVgrates
p3682
g2510
sVgrater
p3683
g3683
sVcate
p3684
g3684
sVprepare
p3685
Vprepare
p3686
sVarea
p3687
g3687
sVtable-tennis
p3688
Vtable-tenni
p3689
sVremoving
p3690
Vremove
p3691
sVstart
p3692
g1732
sVcats
p3693
g3240
sVgrated
p3694
g2510
sVstars
p3695
Vstar
p3696
sVsmashes
p3697
g1692
sVdrains
p3698
Vdrain
p3699
sVpitcher
p3700
g3700
sVomelet
p3701
g3701
sVtrying
p3702
g1977
sVwoman`s
p3703
Vwoman`
p3704
sVbucket
p3705
Vbucket
p3706
sVbrownish-gold
p3707
g3707
sVpostures
p3708
Vposture
p3709
sVbucked
p3710
Vbuck
p3711
sVwrestlers
p3712
Vwrestler
p3713
sVoxen
p3714
g3714
sVsubdue
p3715
Vsubdue
p3716
sVmoved
p3717
Vmove
p3718
sVmover
p3719
g3719
sVmoves
p3720
g3718
sVjumproping
p3721
Vjumprop
p3722
sVantenna
p3723
g3723
sVGerbal'sa
p3724
Vgerbal'sa
p3725
sVstorage
p3726
g3726
sVhurtles
p3727
Vhurtle
p3728
sVyou
p3729
g3729
sVforcing
p3730
Vforce
p3731
sVpupply
p3732
g3732
sVjuic
p3733
g3733
sVpolar
p3734
g3734
sVdrift
p3735
g1541
sVpeas
p3736
Vpea
p3737
sVwields
p3738
Vwield
p3739
sVElement
p3740
Velement
p3741
sVcomputerized
p3742
Vcomputerize
p3743
sVpodium
p3744
g3744
sVpool
p3745
Vpool
p3746
sVbuilding
p3747
Vbuild
p3748
sVchords
p3749
Vchord
p3750
sVsmooch
p3751
Vsmooch
p3752
sVcored
p3753
g1518
sVembracing
p3754
Vembrace
p3755
sVstrings
p3756
Vstring
p3757
sVmannequin
p3758
g3758
sVoutlining
p3759
Voutline
p3760
sVsince
p3761
g3761
sVskeleton
p3762
g3762
sVpointing
p3763
Vpoint
p3764
sVsplitting
p3765
g484
sVmonth
p3766
g3766
sVbullion
p3767
g3767
sVreligious
p3768
Vreligiou
p3769
sVcarpet
p3770
Vcarpet
p3771
sVicons
p3772
Vicon
p3773
sVgymnast
p3774
g3774
sVgunman
p3775
g3775
sVfountain
p3776
g3776
sVwashroom
p3777
g3777
sVKamaboko
p3778
Vkamaboko
p3779
sVvoicing
p3780
g2933
sVbombarded
p3781
Vbombard
p3782
sVbalancing
p3783
g3058
sVSalt
p3784
g1005
sVoutrun
p3785
Voutrun
p3786
sVliquidized
p3787
Vliquidize
p3788
sVfence
p3789
Vfence
p3790
sVgreen-piece
p3791
g3791
sVstreets
p3792
Vstreet
p3793
sVring-tailed
p3794
Vring-tail
p3795
sVplayyed
p3796
Vplay
p3797
sVRobb
p3798
Vrobb
p3799
sVtussle
p3800
Vtussle
p3801
sVdribbling
p3802
Vdribble
p3803
sVthickness
p3804
Vthicknes
p3805
sVscallops
p3806
g1696
sVrecruits
p3807
Vrecruit
p3808
sVloose
p3809
Vloose
p3810
sVballet
p3811
g3811
sVanswers
p3812
Vanswer
p3813
sVtracks
p3814
Vtrack
p3815
sVdune
p3816
g3816
sVexcess
p3817
Vexces
p3818
sVarena
p3819
g3819
sVcolored
p3820
Vcolore
p3821
sVahead
p3822
g3822
sVvegetarian
p3823
g3823
sVcreepy
p3824
g3824
sVdrawers
p3825
Vdrawer
p3826
sVamount
p3827
Vamount
p3828
sVtrainer
p3829
g3829
sVfamily
p3830
g3830
sVhogs
p3831
Vhog
p3832
sVchunky
p3833
g3833
sVtoys
p3834
Vtoy
p3835
sVchunks
p3836
Vchunk
p3837
sVattendant
p3838
g3838
sVtakes
p3839
g971
sVcontains
p3840
g900
sVtaken
p3841
g971
sVButter
p3842
g798
sVlowering
p3843
Vlower
p3844
sVsurgeions
p3845
Vsurgeion
p3846
sVChickens
p3847
Vchicken
p3848
sVscallions
p3849
Vscallion
p3850
sVbroke
p3851
g2709
sVbrowned
p3852
g1459
sVmounted
p3853
g3234
sVgrill
p3854
g1012
sVsweeps
p3855
g3605
sVpeals
p3856
g866
sVthumped
p3857
g1267
sVpushes
p3858
g670
sVCheerleaders
p3859
Vcheerleader
p3860
sVpushed
p3861
g670
sVukelele
p3862
g3862
sVcows
p3863
g2363
sVpinscher
p3864
g3864
sVhamburgers
p3865
Vhamburger
p3866
sVchops
p3867
g716
sVincisions
p3868
Vincision
p3869
sVmenus
p3870
Vmenu
p3871
sVtumbled
p3872
Vtumble
p3873
sVtried
p3874
g1977
sVcommunicating
p3875
Vcommunicate
p3876
sVLemur
p3877
Vlemur
p3878
sVtries
p3879
g1977
sVClowns
p3880
Vclown
p3881
sVunbaked
p3882
Vunbake
p3883
sVhorizontal
p3884
g3884
sVa
p3885
g3885
sVegs
p3886
Veg
p3887
sVracetrack
p3888
g3888
sVDucklings
p3889
Vduckling
p3890
sVtelephones
p3891
g1438
sVscaring
p3892
Vscare
p3893
sVbreads
p3894
g1660
sVegg
p3895
g1424
sVchicks
p3896
Vchick
p3897
sVhelp
p3898
Vhelp
p3899
sVrhinos
p3900
Vrhino
p3901
sVheld
p3902
g126
sVchicke
p3903
g3903
sVclarinet
p3904
g3904
sVcarpeted
p3905
g3771
sVsolving
p3906
Vsolve
p3907
sVpeanuts
p3908
Vpeanut
p3909
sVChong
p3910
Vchong
p3911
sVtumbler
p3912
g3912
sVfood
p3913
g3913
sVknocking
p3914
g1445
sVpetted
p3915
g666
sVcupcake
p3916
g3916
sVpeeing
p3917
g3038
sVterrain
p3918
g3918
sVvomit
p3919
Vvomit
p3920
sVfoot
p3921
Vfoot
p3922
sVlinking
p3923
Vlink
p3924
sVdesperately
p3925
g3925
sVintervene
p3926
Vintervene
p3927
sVtransplanting
p3928
Vtransplant
p3929
sVCUTTING
p3930
Vcut
p3931
sVstopped
p3932
Vstop
p3933
sVQuail
p3934
Vquail
p3935
sVpredatory
p3936
g3936
sVsketches
p3937
g2472
sVjaws
p3938
g2293
sVsoapy
p3939
g3939
sVsquishy
p3940
g3940
sVbeyond
p3941
g3941
sVevent
p3942
g3942
sVbikers
p3943
Vbiker
p3944
sVsurrounded
p3945
Vsurround
p3946
sVsafety
p3947
Vsafety
p3948
sVmittens
p3949
Vmitten
p3950
sVdunk
p3951
Vdunk
p3952
sVbald
p3953
g3953
sVbass
p3954
Vbas
p3955
sVdirt
p3956
g3956
sVpug
p3957
Vpug
p3958
sVstraightener
p3959
g3959
sVbase
p3960
Vbase
p3961
sVput
p3962
Vput
p3963
sVforecasts
p3964
Vforecast
p3965
sVpup
p3966
Vpup
p3967
sVlemur
p3968
g3968
sVcheering
p3969
Vcheer
p3970
sVamerican
p3971
g3971
sVKevin
p3972
Vkevin
p3973
sVautomobile
p3974
g3974
sVheartbeat
p3975
g3975
sVblush
p3976
Vblush
p3977
sVinteract
p3978
g2333
sVdabbing
p3979
Vdab
p3980
sVreflected
p3981
Vreflect
p3982
sVhorse
p3983
Vhorse
p3984
sVIndividuls
p3985
Vindividul
p3986
sVpinned
p3987
Vpin
p3988
sVstation
p3989
Vstation
p3990
sVhundred
p3991
Vhundr
p3992
sVbanana
p3993
g3993
sVbumba
p3994
g3994
sVsquirts
p3995
Vsquirt
p3996
sVselling
p3997
Vsell
p3998
sVstorm
p3999
Vstorm
p4000
sVbowel
p4001
g4001
sVsignaling
p4002
Vsignale
p4003
sVgrocery
p4004
g4004
sVperformers
p4005
Vperformer
p4006
sVgrey
p4007
Vgrey
p4008
sVbride
p4009
g4009
sVbattering
p4010
Vbatter
p4011
sVSpacey
p4012
Vspacey
p4013
sVtoward
p4014
g4014
sVbuilder
p4015
g4015
sVkart
p4016
g4016
sVGod
p4017
Vgod
p4018
sValongside
p4019
g4019
sVjuicy
p4020
g4020
sVrandomly
p4021
g4021
sVjuice
p4022
g4022
sVecstatically
p4023
g4023
sVjack-o-lantern's
p4024
Vjack-o-lantern'
p4025
sVflaming
p4026
g3204
sVofficers
p4027
Vofficer
p4028
sVtargets
p4029
g2783
sVlit
p4030
Vlit
p4031
sVswallowing
p4032
g1351
sVlip
p4033
Vlip
p4034
sVplaypen
p4035
g4035
sVtowards
p4036
Vtoward
p4037
sVunstuck
p4038
Vunstick
p4039
sVadds
p4040
g2989
sVThe
p4041
Vthe
p4042
sVrhe
p4043
g4043
sVtoy's
p4044
Vtoy'
p4045
sVmobile
p4046
g4046
sVclear
p4047
g3457
sVtongs
p4048
Vtong
p4049
sVclean
p4050
Vclean
p4051
sVblend
p4052
g424
sVtuber
p4053
g4053
sVhips
p4054
Vhip
p4055
sVgiggles
p4056
Vgiggle
p4057
sVbarbell
p4058
g4058
sVmeticulously
p4059
g4059
sVgiggled
p4060
g4057
sVringers
p4061
Vringer
p4062
sVflicked
p4063
Vflick
p4064
sVscooter
p4065
g4065
sVFrench
p4066
Vfrench
p4067
sVflights
p4068
Vflight
p4069
sVcircle
p4070
g2804
sVGuys
p4071
Vguy
p4072
sVporcupine
p4073
g4073
sVabulance
p4074
g4074
sVtrees
p4075
g280
sVWhile
p4076
Vwhile
p4077
sVpretending
p4078
Vpretend
p4079
sVcompeting
p4080
g231
sVboils
p4081
g494
sVduring
p4082
Vdure
p4083
sVimitating
p4084
Vimitate
p4085
sVcatches
p4086
g3404
sVgloved
p4087
Vglove
p4088
sVtoliet
p4089
g4089
sVwitha
p4090
g4090
sVgloves
p4091
g4088
sVoxi
p4092
g4092
sVtusker
p4093
g4093
sVthrowing
p4094
g3670
sVknive
p4095
g4095
sVclose
p4096
Vclose
p4097
sVpictures
p4098
Vpicture
p4099
sVwoodchuck
p4100
g4100
sVwok
p4101
g4101
sVFighter
p4102
Vfighter
p4103
sVmissing
p4104
g1531
sVQuadroPod
p4105
Vquadropod
p4106
sVspray
p4107
Vspray
p4108
sVinvisible
p4109
g4109
sVzipper
p4110
g4110
sVboth
p4111
g4111
sVFish
p4112
Vfish
p4113
sVvegetable-looking
p4114
Vvegetable-look
p4115
sVSteve
p4116
Vsteve
p4117
sVeggplant
p4118
g4118
sVboxers
p4119
Vboxer
p4120
sVliked
p4121
Vlike
p4122
sVrailway-track
p4123
g4123
sVvessel
p4124
g4124
sVshish-kabobs
p4125
Vshish-kabob
p4126
sVlattice
p4127
Vlattice
p4128
sVsauted
p4129
Vsaut
p4130
sVcoolant
p4131
g4131
sVinstructing
p4132
Vinstruct
p4133
sVempty
p4134
Vempty
p4135
sVWomen
p4136
Vwomen
p4137
sVcrack
p4138
Vcrack
p4139
sVelse
p4140
g4140
sVdialing
p4141
Vdial
p4142
sVlook
p4143
g3363
sVrope
p4144
g4144
sVwhile
p4145
g4145
sVanimated
p4146
Vanimate
p4147
sVbiking
p4148
g2281
sVflees
p4149
Vflee
p4150
sVpack
p4151
g2328
sVforelegs
p4152
Vforeleg
p4153
sVFingers
p4154
g72
sVreads
p4155
g1775
sVready
p4156
Vready
p4157
sVEyes
p4158
Veye
p4159
sVmakeshift
p4160
g4160
sVgrand
p4161
g4161
sVerectly
p4162
g4162
sVhallway
p4163
g4163
sVused
p4164
g3630
sVfatty
p4165
g4165
sVoverweight
p4166
Voverweight
p4167
sVuses
p4168
g3630
sVcleaning
p4169
g4051
sVceremonious
p4170
Vceremoniou
p4171
sVolder
p4172
g4172
sVunrolls
p4173
Vunroll
p4174
sVconsistency
p4175
g4175
sVwedges
p4176
g2070
sVGirl
p4177
Vgirl
p4178
sVlobsters
p4179
Vlobster
p4180
sVquarters
p4181
g873
sVred-tinted
p4182
Vred-tint
p4183
sVroasted
p4184
g2382
sVFlour
p4185
g2085
sVFootball
p4186
Vfootball
p4187
sVexercising
p4188
g2815
sVscrunched
p4189
Vscrunch
p4190
sVritualistically
p4191
g4191
sVremaining
p4192
Vremain
p4193
sVsprinted
p4194
g2745
sVmarch
p4195
g15
sVradiator
p4196
g4196
sVshowing
p4197
g275
sValbino
p4198
g4198
sVBilly
p4199
Vbilly
p4200
sVgame
p4201
Vgame
p4202
sVwings
p4203
Vwing
p4204
sVtranslucent
p4205
g4205
sVsignal
p4206
Vsignal
p4207
sVSliced
p4208
g199
sVchairs
p4209
g686
sVsautes
p4210
Vsaute
p4211
sVsifts
p4212
Vsift
p4213
sVsofa
p4214
g4214
sVpopular
p4215
g4215
sVminced
p4216
g2888
sVmathematical
p4217
g4217
sVsketch
p4218
g2472
sVparade
p4219
Vparade
p4220
sVlathe
p4221
Vlathe
p4222
sVsome
p4223
g4223
sVyolk
p4224
g4224
sVlips
p4225
g4034
sVblow-up
p4226
g4226
sVdescribing
p4227
Vdescribe
p4228
sVpounding
p4229
g1758
sVApollo
p4230
Vapollo
p4231
sVhi-five
p4232
g4232
sVeating
p4233
g233
sVrub
p4234
g3544
sVrug
p4235
g4235
sVcirle
p4236
g4236
sVstem
p4237
g3546
sVstep
p4238
g539
sVstew
p4239
Vstew
p4240
sVportico
p4241
g4241
sVtracing
p4242
Vtrace
p4243
sVLion
p4244
Vlion
p4245
sVblock
p4246
g2106
sVseeing
p4247
g960
sVwithin
p4248
g4248
sVtofu
p4249
g4249
sVrolls
p4250
g404
sVsmells
p4251
g406
sVplacing
p4252
g2516
sVStyrofoam
p4253
Vstyrofoam
p4254
sVharem
p4255
g4255
sVhimself
p4256
g4256
sVdriverless
p4257
Vdriverles
p4258
sVdips
p4259
g371
sVIndividuals
p4260
Vindividual
p4261
sVreed
p4262
Vreed
p4263
sVinjection
p4264
g4264
sVreel
p4265
Vreel
p4266
sVcollapses
p4267
Vcollapse
p4268
sVskull
p4269
g4269
sVcautiously
p4270
g4270
sVsimilar
p4271
g4271
sVfemale's
p4272
Vfemale'
p4273
sVhesitantly
p4274
g4274
sVTe
p4275
Vte
p4276
sVkidney
p4277
g4277
sVhalfpipe
p4278
g4278
sVnab
p4279
Vnab
p4280
sVPolar
p4281
Vpolar
p4282
sVpolygon
p4283
g4283
sVdogsleds
p4284
Vdogsled
p4285
sVTV
p4286
Vtv
p4287
sVnap
p4288
Vnap
p4289
sVelectrical
p4290
g4290
sVkickboxing
p4291
Vkickbox
p4292
sVpanday
p4293
g4293
sVdepartment
p4294
g4294
sVpandas
p4295
Vpanda
p4296
sVsmiles
p4297
g1341
sVdraw
p4298
g2425
sVspectators
p4299
Vspectator
p4300
sVcrouching
p4301
Vcrouch
p4302
sVdrag
p4303
g4303
sVrested
p4304
g1159
sVsmiled
p4305
g1341
sVSculptors
p4306
Vsculptor
p4307
sVboyis
p4308
Vboyi
p4309
sVstructure
p4310
Vstructure
p4311
sVtubes
p4312
g1197
sVAn
p4313
Van
p4314
sVAs
p4315
g1288
sVbleacher
p4316
g4316
sVshe's
p4317
Vshe'
p4318
sVtoddlerdom
p4319
g4319
sVberries
p4320
Vberry
p4321
sVevenly
p4322
g4322
sVunderbrush
p4323
g4323
sVPelt
p4324
Vpelt
p4325
sVgo
p4326
g1024
sVbarbecue
p4327
g4327
sVcompact
p4328
Vcompact
p4329
sVcozily
p4330
g4330
sVmimes
p4331
Vmime
p4332
sVsuits
p4333
g1889
sVkarate-style
p4334
g4334
sVjackolantern
p4335
g4335
sVukulele
p4336
g4336
sVwalled
p4337
Vwall
p4338
sVtrolleys
p4339
Vtrolley
p4340
sVwave
p4341
g1310
sVtrough
p4342
g4342
sVtelling
p4343
Vtell
p4344
sVflounders
p4345
Vflounder
p4346
sVsnowboards
p4347
Vsnowboard
p4348
sVpositions
p4349
Vposition
p4350
sVbutton
p4351
g2298
sVunusual
p4352
g4352
sVshish
p4353
g4353
sVshiso
p4354
g4354
sVcomforts
p4355
Vcomfort
p4356
sVsledghammer
p4357
g4357
sVlotioned
p4358
Vlotion
p4359
sVclimed
p4360
Vclime
p4361
sVpepper
p4362
Vpepper
p4363
sVboots
p4364
Vboot
p4365
sVwaking
p4366
Vwake
p4367
sVjump
p4368
g1049
sVbooth
p4369
g4369
sVpicked
p4370
g1406
sVsausage
p4371
g4371
sVcupcakes
p4372
Vcupcake
p4373
sVplays
p4374
g471
sVvampire
p4375
g4375
sVcell
p4376
g4376
sVBoys
p4377
Vboy
p4378
sVplaye
p4379
g4379
sVEight
p4380
Veight
p4381
sVpoles
p4382
Vpole
p4383
sVGuinna
p4384
Vguinna
p4385
sVAmerica
p4386
Vamerica
p4387
sVshoreline
p4388
g4388
sVstance
p4389
g4389
sVcommercial
p4390
g4390
sVyuzu
p4391
g4391
sVGreen
p4392
Vgreen
p4393
sVpancake
p4394
g4394
sVswimmingpool
p4395
g4395
sVwhisking
p4396
g2577
sVArabic
p4397
Varabic
p4398
sVwig
p4399
Vwig
p4400
sVexamining
p4401
Vexamine
p4402
sVaddresses
p4403
Vaddress
p4404
sVpitch
p4405
Vpitch
p4406
sVsinging
p4407
Vsing
p4408
sVcloud
p4409
Vcloud
p4410
sVgrazes
p4411
g430
sVTrampoline
p4412
g571
sVwhacks
p4413
Vwhack
p4414
sVcamera
p4415
g4415
sVvehicle
p4416
g4416
sVstage
p4417
Vstage
p4418
sVcheeks
p4419
Vcheek
p4420
sVpopped
p4421
Vpop
p4422
sVstarted
p4423
g1732
sVbecomes
p4424
Vbecome
p4425
sVmissile
p4426
g4426
sVwhisks
p4427
g2577
sVrinding
p4428
Vrind
p4429
sVstarter
p4430
g4430
sVcrosses
p4431
Vcross
p4432
sVannouncing
p4433
Vannounce
p4434
sVscooted
p4435
g796
sVride
p4436
g2080
sVdonut
p4437
g4437
sVcrossed
p4438
g4432
sVmeet
p4439
g2194
sVdrops
p4440
g3341
sVcontrol
p4441
Vcontrol
p4442
sVferrets
p4443
Vferret
p4444
sVhalloween
p4445
g4445
sVescaped
p4446
Vescap
p4447
sVpulling
p4448
g829
sVhit
p4449
g1713
sVmoonwalk
p4450
g4450
sVSchwarzenegger
p4451
Vschwarzenegger
p4452
sVelliptical
p4453
g4453
sVLionel
p4454
Vlionel
p4455
sVpink
p4456
Vpink
p4457
sVfarm
p4458
Vfarm
p4459
sVpeeling
p4460
g3036
sVshrimp's
p4461
Vshrimp'
p4462
sVscoop
p4463
g1529
sVbathing
p4464
Vbathe
p4465
sVincluding
p4466
Vinclude
p4467
sVcostume
p4468
g760
sVhelicopters
p4469
Vhelicopter
p4470
sVouter
p4471
g4471
sVbroom
p4472
g4472
sVyoungster
p4473
g4473
sVskater
p4474
g4474
sVTwo
p4475
Vtwo
p4476
sViPhone
p4477
Viphone
p4478
sVhands
p4479
g978
sVfront
p4480
Vfront
p4481
sVsnuggling
p4482
g64
sVbrocolli
p4483
g4483
sVslide
p4484
g2072
sVcrossing
p4485
g4432
sVshaking
p4486
g568
sVmanican
p4487
g4487
sVankles
p4488
Vankle
p4489
sVshowering
p4490
g282
sVilluminate
p4491
Villuminate
p4492
sVchunk
p4493
g4493
sVmulticolored
p4494
Vmulticolore
p4495
sVmeasure
p4496
Vmeasure
p4497
sVseparating
p4498
g2634
sVsandy
p4499
g4499
sVsecretly
p4500
g4500
sVplayground
p4501
g4501
sVgridle
p4502
g4502
sVumbrella
p4503
g4503
sVcricketer
p4504
g4504
sVreacts
p4505
Vreact
p4506
sVundressing
p4507
Vundress
p4508
sVdiagonal
p4509
g4509
sVcompletely
p4510
g4510
sVPenguins
p4511
Vpenguin
p4512
sVgeometry
p4513
g4513
sVmaths
p4514
Vmath
p4515
sVtimer
p4516
g4516
sVkeep
p4517
g178
sVwading
p4518
g1239
sVmad
p4519
Vmad
p4520
sVscanning
p4521
Vscan
p4522
sVsuckling
p4523
Vsuckle
p4524
sVthree-tiered
p4525
Vthree-tier
p4526
sVice-cream
p4527
g4527
sVhorseman
p4528
g4528
sVbears
p4529
Vbear
p4530
sVwrapper
p4531
g4531
sVmerrier
p4532
g4532
sVattack
p4533
Vattack
p4534
sVmotorcyle
p4535
g4535
sVwrapped
p4536
Vwrapped
p4537
sVman
p4538
g1073
sVprone
p4539
g4539
sVexactly
p4540
g4540
sVclanging
p4541
Vclang
p4542
sVR
p4543
Vr
p4544
sVherself
p4545
g4545
sVoutline
p4546
g3760
sVSomene
p4547
Vsomene
p4548
sVphotograph
p4549
g2998
sVcartoonist
p4550
g4550
sVbeg
p4551
Vbeg
p4552
sVbed
p4553
g3107
sVunboxes
p4554
Vunbox
p4555
sVproviding
p4556
Vprovide
p4557
sVsultry
p4558
g4558
sVdrunk
p4559
g2410
sVbagged
p4560
g720
sVRichard
p4561
Vrichard
p4562
sVcarrots
p4563
Vcarrot
p4564
sVgrayish
p4565
g4565
sVhand-feeding
p4566
Vhand-fee
p4567
sVborder
p4568
Vborder
p4569
sVpreps
p4570
Vprep
p4571
sVX-Box
p4572
Vx-box
p4573
sVsings
p4574
g4408
sVeyeshadow
p4575
g4575
sVsprinkles
p4576
Vsprinkle
p4577
sVsprinkler
p4578
g4578
sVBatman
p4579
Vbatman
p4580
sVable
p4581
g4581
sVpushups
p4582
Vpushup
p4583
sVpurchasing
p4584
Vpurchase
p4585
sVsprinkled
p4586
g4577
sVso
p4587
g4587
sVseasonings
p4588
Vseasoning
p4589
sVblades
p4590
Vblade
p4591
sVhorse's
p4592
Vhorse'
p4593
sVpassionately
p4594
g4594
sVsewing
p4595
g2841
sVbasket
p4596
g4596
sVcellphone
p4597
g4597
sVscrambles
p4598
Vscramble
p4599
sVeachother
p4600
g4600
sVupset
p4601
Vupset
p4602
sVscrambled
p4603
g4599
sVprickly
p4604
g4604
sVsummersaults
p4605
Vsummersault
p4606
sVemerging
p4607
Vemerge
p4608
sVindoor
p4609
g4609
sVparked
p4610
Vpark
p4611
sVsoldiers
p4612
g2952
sVskate-board
p4613
g4613
sVtire
p4614
g48
sVreactive
p4615
g4615
sVcreamer
p4616
g4616
sVrabbi
p4617
g4617
sVfuel
p4618
Vfuel
p4619
sVsurfs
p4620
g820
sVslows
p4621
g1016
sVflattens
p4622
Vflatten
p4623
sVvehicles
p4624
Vvehicle
p4625
sVjoins
p4626
Vjoin
p4627
sVMedics
p4628
Vmedic
p4629
sVRacers
p4630
Vracer
p4631
sVshe
p4632
g4632
sVgrab
p4633
Vgrab
p4634
sVhardwood
p4635
g4635
sVhalving
p4636
Vhalve
p4637
sVshake
p4638
g568
sVhumans
p4639
Vhuman
p4640
sVoperates
p4641
Voperate
p4642
sVcomputer
p4643
g4643
sVdriveway
p4644
g4644
sVtend
p4645
g3310
sVwritten
p4646
g1636
sVtyre
p4647
Vtyre
p4648
sVslicks
p4649
Vslick
p4650
sVtent
p4651
Vtent
p4652
sVrinses
p4653
Vrinse
p4654
sVkicking
p4655
Vkick
p4656
sVRace
p4657
g1533
sVkey
p4658
Vkey
p4659
sVgroup
p4660
Vgroup
p4661
sVhits
p4662
g1713
sVsniff
p4663
g664
sVgingers
p4664
Vginger
p4665
sVairplane's
p4666
Vairplane'
p4667
sVoanoe
p4668
g4668
sVerased
p4669
g2129
sVyam
p4670
g4670
sVslowly
p4671
g4671
sVeraser
p4672
g4672
sVerases
p4673
g2129
sVshoulders
p4674
Vshoulder
p4675
sVToaster
p4676
Vtoaster
p4677
sVcontrolled
p4678
g4442
sVkicke
p4679
g4679
sVpie
p4680
g4680
sVsuspension
p4681
g4681
sVkicks
p4682
g4656
sVsmoking
p4683
g2613
sVAnd
p4684
Vand
p4685
sVSeasoning
p4686
Vseason
p4687
sVchalk
p4688
Vchalk
p4689
sVkabobs
p4690
Vkabob
p4691
sVcornering
p4692
Vcorner
p4693
sVflubs
p4694
Vflub
p4695
sVtabletop
p4696
g4696
sVexamines
p4697
g4402
sVcoating
p4698
g946
sVsurface
p4699
Vsurface
p4700
sVswinging
p4701
Vswing
p4702
sVYou
p4703
Vyou
p4704
sVBear
p4705
g4530
sVtweezed
p4706
Vtweeze
p4707
sVstrange
p4708
g4708
sVparty
p4709
g4709
sVtapped
p4710
g2288
sVpull-ups
p4711
Vpull-up
p4712
sVfrequently
p4713
g4713
sVpoultry
p4714
g4714
sVsurfboard
p4715
g4715
sVstretchers
p4716
Vstretcher
p4717
sVi
p4718
g4718
sVobstacles
p4719
Vobstacle
p4720
sVwell
p4721
Vwell
p4722
sV45
p4723
g4723
sVgazebo-like
p4724
g4724
sVbatters
p4725
g4011
sVmissle
p4726
g4726
sVdistant
p4727
g4727
sVping-pong
p4728
g4728
sVjackal
p4729
g4729
sVparchment
p4730
g4730
sVEggs
p4731
g1424
sVlogged
p4732
g2198
sVextends
p4733
Vextend
p4734
sVfootballer
p4735
g4735
sVkick
p4736
g4656
sVrafter
p4737
g4737
sVcrushed
p4738
g883
sVhistoric
p4739
g4739
sVunseen
p4740
g4740
sVcrushes
p4741
g883
sVintersection
p4742
g4742
sVsizes
p4743
g3396
sVclown
p4744
g3881
sVsized
p4745
g3396
sVtablespoons
p4746
Vtablespoon
p4747
sVCups
p4748
g1856
sVde-scaled
p4749
Vde-scale
p4750
sVscuffle
p4751
Vscuffle
p4752
sVlibrary
p4753
g4753
sVU-
p4754
Vu-
p4755
sVhome
p4756
Vhome
p4757
sVdemonstrates
p4758
g2114
sVkettle
p4759
g4759
sVgrinding
p4760
g3463
sVe-mail
p4761
g4761
sVtadpole
p4762
g4762
sVdemonstrated
p4763
g2114
sVcoated
p4764
g946
sVreaching
p4765
Vreach
p4766
sVjournal
p4767
g4767
sVUn
p4768
Vun
p4769
sVJohnny
p4770
Vjohnny
p4771
sVpersuades
p4772
Vpersuade
p4773
sVcleans
p4774
g4051
sVrecognized
p4775
Vrecognize
p4776
sVnightclub
p4777
g4777
sVrodeo
p4778
g4778
sVtoppings
p4779
Vtopping
p4780
sVeatables
p4781
Veatable
p4782
sVpuppies
p4783
Vpuppy
p4784
sVtongue
p4785
Vtongue
p4786
sVpastries
p4787
Vpastry
p4788
sVpistols
p4789
g2335
sVlouvered
p4790
Vlouver
p4791
sVmushrooms
p4792
Vmushroom
p4793
sVcongregate
p4794
g3304
sVartists
p4795
Vartist
p4796
sVutility
p4797
g4797
sVgerbil
p4798
g4798
sVComputerized
p4799
g3743
sVdogfood
p4800
g4800
sVsynthesizer
p4801
g4801
sVvein
p4802
g871
sVcricket
p4803
g4803
sVtriangular
p4804
g4804
sVastro
p4805
g4805
sVstrawberries
p4806
Vstrawberry
p4807
sVgoals
p4808
Vgoal
p4809
sVsprinkling
p4810
g4577
sVear
p4811
Vear
p4812
sVeat
p4813
g233
sVhe
p4814
g4814
sVcarriage
p4815
g4815
sVpiece
p4816
g2082
sVtissues
p4817
Vtissue
p4818
sVkisses
p4819
g1753
sVtwist
p4820
g1125
sVbeats
p4821
g3032
sVpenne
p4822
g4822
sVkissed
p4823
g1753
sVbalcony
p4824
g4824
sVcontest
p4825
Vcontest
p4826
sVtreadmills
p4827
Vtreadmill
p4828
sVstar
p4829
g3696
sVliving
p4830
g3222
sVstay
p4831
Vstay
p4832
sVmonkey's
p4833
Vmonkey'
p4834
sVfoil
p4835
Vfoil
p4836
sVstab
p4837
g31
sVfriends
p4838
g3407
sVaquarium
p4839
g4839
sVportion
p4840
Vportion
p4841
sVo'lantern
p4842
g4842
sVpowdery
p4843
g4843
sVmackerel
p4844
g4844
sVpowders
p4845
g91
sVrocking
p4846
g2724
sVwhose
p4847
g4847
sVswab
p4848
Vswab
p4849
sVswam
p4850
g2489
sVtremors
p4851
Vtremor
p4852
sVswan
p4853
g4853
sVbays
p4854
Vbay
p4855
sVtrousers
p4856
Vtrouser
p4857
sVteaching
p4858
Vteach
p4859
sVonstage
p4860
g4860
sVlongways
p4861
Vlongway
p4862
sVfists
p4863
Vfist
p4864
sVcruising
p4865
g1623
sVvase
p4866
g4866
sVbaking
p4867
Vbake
p4868
sVcrops
p4869
Vcrop
p4870
sVsolution
p4871
g4871
sVconvenience
p4872
g4872
sVuncooked
p4873
Vuncook
p4874
sVheading
p4875
g1572
sVclothes
p4876
g3258
sVquilt
p4877
Vquilt
p4878
sVeven
p4879
Veven
p4880
sVspouses
p4881
Vspouse
p4882
sVtrapping
p4883
Vtrap
p4884
sVwreck
p4885
g3607
sVorchestra
p4886
g4886
sVbikini
p4887
g4887
sVlights
p4888
Vlight
p4889
sVnew
p4890
g4890
sVtips
p4891
Vtip
p4892
sVconfetti-like
p4893
g4893
sVscreams
p4894
g192
sVmo-pad
p4895
g4895
sVpancakes
p4896
Vpancake
p4897
sVjoin
p4898
g4627
sVmen
p4899
g4899
sVweirdly
p4900
g4900
sVdrew
p4901
g2425
sVactive
p4902
g4902
sV100
p4903
g4903
sVcardboard
p4904
g4904
sVdry
p4905
g147
sVtapes
p4906
g2300
sVrests
p4907
g1159
sVpiercing
p4908
g2639
sVWonderland
p4909
Vwonderland
p4910
sVsomeone's
p4911
Vsomeone'
p4912
sVOnions
p4913
Vonion
p4914
sVeyebrows
p4915
Veyebrow
p4916
sVice-cubes
p4917
Vice-cube
p4918
sVslicer
p4919
g4919
sVslices
p4920
g199
sVsliced
p4921
g199
sVturning
p4922
g952
sVguests
p4923
Vguest
p4924
sVjackets
p4925
Vjacket
p4926
sVarmy
p4927
g4927
sVwatering
p4928
g2877
sVbarks
p4929
Vbark
p4930
sVarms
p4931
Varm
p4932
sVbike
p4933
g2281
sVoverhead
p4934
g4934
sVtwirled
p4935
Vtwirl
p4936
sVtype
p4937
g158
sVtell
p4938
g4344
sVwarp
p4939
Vwarp
p4940
sVwarm
p4941
Vwarm
p4942
sVadult
p4943
g4943
sValigned
p4944
Valign
p4945
sVdefecated
p4946
g2563
sVroom
p4947
g4947
sVtrots
p4948
Vtrot
p4949
sVgasoline
p4950
g4950
sVroof
p4951
Vroof
p4952
sVrim
p4953
Vrim
p4954
sVdefecates
p4955
g2563
sVsizzles
p4956
g3050
sVroot
p4957
g1493
sVvodka
p4958
g4958
sVgive
p4959
Vgive
p4960
sVblips
p4961
Vblip
p4962
sVlaughs
p4963
g1333
sVfoods
p4964
Vfood
p4965
sVadvancing
p4966
Vadvance
p4967
sVsideline
p4968
Vsideline
p4969
sVpogo
p4970
g4970
sVbraids
p4971
Vbraid
p4972
sVamazing
p4973
Vamaze
p4974
sVJack
p4975
Vjack
p4976
sVabdomen
p4977
g4977
sVbushes
p4978
g350
sVpurchase
p4979
g4585
sVattempt
p4980
g3452
sVthird
p4981
g4981
sVgurneys
p4982
Vgurney
p4983
sVdribled
p4984
Vdrible
p4985
sVpanda's
p4986
Vpanda'
p4987
sVovertakes
p4988
g2935
sVunfolds
p4989
Vunfold
p4990
sVdeck
p4991
Vdeck
p4992
sVpianos
p4993
Vpiano
p4994
sVfish's
p4995
Vfish'
p4996
sVkeyboard
p4997
Vkeyboard
p4998
sVwindshield
p4999
g4999
sVbefore
p5000
g5000
sVscoring
p5001
g393
sVchihuahua
p5002
g5002
sVpersonal
p5003
g5003
sVsoaking
p5004
g296
sVmonkeys
p5005
Vmonkey
p5006
sVBeck
p5007
Vbeck
p5008
sVcarve
p5009
g1279
sVworkout
p5010
g5010
sVglazes
p5011
Vglaze
p5012
sVtentacle
p5013
g5013
sVOxi
p5014
Voxi
p5015
sVleaner
p5016
g5016
sVmotorcyclist
p5017
g5017
sVarrested
p5018
g2434
sVleaned
p5019
Vleane
p5020
sVroast
p5021
g2382
sVmounts
p5022
g3234
sVacoustic
p5023
g5023
sVwent
p5024
g1024
sVside
p5025
g1927
sVbone
p5026
Vbone
p5027
sVinserts
p5028
g993
sVcalmly
p5029
g5029
sVdurability
p5030
g5030
sVaide
p5031
g5031
sVstealing
p5032
g2860
sVextract
p5033
Vextract
p5034
sVenclosure
p5035
g5035
sVcontent
p5036
g2798
sVdrivong
p5037
g5037
sVsurprise
p5038
Vsurprise
p5039
sVassaults
p5040
Vassault
p5041
sVcement
p5042
Vcement
p5043
sVventriloquy
p5044
g5044
sVaisle
p5045
g5045
sVstarts
p5046
g1732
sVsteward
p5047
Vsteward
p5048
sVswiping
p5049
g1576
sVliquids
p5050
Vliquid
p5051
sVloud
p5052
g5052
sVhoop
p5053
g3197
sVcomforted
p5054
g4356
sVbuttock
p5055
g5055
sVhook
p5056
Vhook
p5057
sVdisappearing
p5058
g2905
sVTomatoes
p5059
Vtomatoe
p5060
sVhydrant
p5061
g5061
sVspinach
p5062
g5062
sVgirls
p5063
Vgirl
p5064
sVboating
p5065
g1088
sVtwister
p5066
g5066
sVMonkeys
p5067
Vmonkey
p5068
sVbouncing
p5069
g1848
sVgym
p5070
g5070
sVdigs
p5071
g2401
sVbegins
p5072
Vbegin
p5073
sVdistance
p5074
Vdistance
p5075
sVmatter
p5076
Vmatter
p5077
sVsilly
p5078
g5078
sVmini
p5079
g5079
sVcheek
p5080
g4420
sVsees
p5081
g960
sVstomping
p5082
Vstomp
p5083
sVginger
p5084
g4665
sVAnimation
p5085
Vanimation
p5086
sVseen
p5087
g960
sVseem
p5088
g1958
sVmint
p5089
Vmint
p5090
sVtells
p5091
g4344
sVfitting
p5092
g190
sVedge
p5093
g1144
sVscaped
p5094
Vescape
p5095
sVchess
p5096
Vches
p5097
sVwrists
p5098
Vwrist
p5099
sVmashed
p5100
Vmash
p5101
sVmedical
p5102
g5102
sVdog
p5103
g386
sVSingle
p5104
Vsingle
p5105
sVpoints
p5106
g3764
sVannoyed
p5107
Vannoy
p5108
sVdeftly
p5109
g5109
sVattempts
p5110
g3452
sVseadoo
p5111
g5111
sVstepping
p5112
g539
sVjudges
p5113
Vjudge
p5114
sVbobs
p5115
g2048
sVfolded
p5116
Vfold
p5117
sVsugar
p5118
Vsugar
p5119
sVcelery
p5120
g5120
sVstabbing
p5121
g31
sVfolder
p5122
g5122
sVscrubbing
p5123
g2862
sVwearing
p5124
Vwear
p5125
sVtiles
p5126
Vtile
p5127
sVcolorful
p5128
g5128
sVflowerettes
p5129
Vflowerette
p5130
sVbeater
p5131
g5131
sVstop
p5132
g3933
sVpatted
p5133
Vpat
p5134
sVwatermelon
p5135
g5135
sVtiled
p5136
g5127
sVbat
p5137
g2543
sVbar
p5138
Vbar
p5139
sVfields
p5140
g2391
sVbay
p5141
g4855
sVbag
p5142
g720
sVsoftly
p5143
g5143
sVtroop
p5144
Vtroop
p5145
sVnotches
p5146
Vnotch
p5147
sVban
p5148
Vban
p5149
sVbak
p5150
g5150
sVears
p5151
g4812
sVfluffy
p5152
g5152
sVsubject
p5153
Vsubject
p5154
sVsaid
p5155
g331
sVSomebody
p5156
Vsomebody
p5157
sVsail
p5158
g60
sVshaved
p5159
g21
sVartificial
p5160
g5160
sVsmacks
p5161
Vsmack
p5162
sVpets
p5163
g666
sVshaves
p5164
g21
sVbaboon
p5165
g5165
sVZebra
p5166
Vzebra
p5167
sVC
p5168
Vc
p5169
sVlotion
p5170
g5170
sVpicking
p5171
g1406
sVhorsemen
p5172
g5172
sVswoops
p5173
Vswoop
p5174
sVwandering
p5175
g2179
sVagainst
p5176
g5176
sVpeddling
p5177
Vpeddle
p5178
sVwalkign
p5179
g5179
sVconfronted
p5180
Vconfront
p5181
sVSnow
p5182
Vsnow
p5183
sVheight
p5184
g5184
sVdrilled
p5185
g860
sVloaded
p5186
g1687
sVUncooked
p5187
Vuncook
p5188
sVabdominal
p5189
g5189
sVputs
p5190
g3963
sVdusting
p5191
g2414
sVparsley
p5192
g5192
sVtiny
p5193
g5193
sVinterest
p5194
g3089
sVbasin
p5195
g5195
sVidol
p5196
g5196
sVthrew
p5197
g3670
sVMohawk
p5198
Vmohawk
p5199
sVnutshells
p5200
Vnutshell
p5201
sVmushroom
p5202
g4793
sVbikini's
p5203
Vbikini'
p5204
sVCD
p5205
Vcd
p5206
sVtapping
p5207
g2288
sVspindles
p5208
Vspindle
p5209
sVtarsier
p5210
g5210
sVskateboards
p5211
Vskateboard
p5212
sVreddish
p5213
g5213
sVugly
p5214
g5214
sVnear
p5215
Vnear
p5216
sVmelted
p5217
g1948
sVaeroplane
p5218
g5218
sVbalance
p5219
g3058
sVanchor
p5220
Vanchor
p5221
sVCt
p5222
Vct
p5223
sVseven
p5224
g5224
sVis
p5225
g1157
sVsushi
p5226
g5226
sVit
p5227
g5227
sVclinging
p5228
g1455
sVin
p5229
g5229
sVia
p5230
g5230
sVmouse
p5231
Vmouse
p5232
sVif
p5233
g5233
sVgrown
p5234
Vgrow
p5235
sVfoot-ball
p5236
g5236
sVbottles
p5237
Vbottle
p5238
sVshimmering
p5239
Vshimmer
p5240
sVmake
p5241
g2026
sVpolaroid
p5242
g5242
sVbottled
p5243
g5238
sVbelly
p5244
Vbelly
p5245
sVLemons
p5246
Vlemon
p5247
sVvegetable
p5248
g5248
sVbearded
p5249
Vbeard
p5250
sVscreaminglooking
p5251
Vscreaminglook
p5252
sVkit
p5253
g5253
sVSCISSOR
p5254
Vscissor
p5255
sVwaterfall
p5256
g5256
sVgarlic
p5257
g5257
sVkid
p5258
Vkid
p5259
sVbutter
p5260
g798
sVpracticed
p5261
g2060
sVfailing
p5262
g986
sVsmokes
p5263
g2613
sVdrowsily
p5264
g5264
sVscrammbling
p5265
Vscrammble
p5266
sVmaterials
p5267
Vmaterial
p5268
sVsmoked
p5269
g2613
sVpooping
p5270
g135
sVleft
p5271
Vleft
p5272
sVHelicopters
p5273
Vhelicopter
p5274
sVjust
p5275
g5275
sVpots
p5276
Vpot
p5277
sVfighters
p5278
Vfighter
p5279
sVblowtorch
p5280
g5280
sVhuman
p5281
g5281
sVsunflower
p5282
g5282
sVcharacter
p5283
Vcharacter
p5284
sVmeatn
p5285
g5285
sVNews
p5286
Vnew
p5287
sVsave
p5288
Vsave
p5289
sVtrimming
p5290
g2552
sVchives
p5291
Vchive
p5292
sVblanching
p5293
Vblanch
p5294
sVbackground
p5295
g5295
sVshoulder
p5296
g4675
sVperforming
p5297
g2954
sVmanual
p5298
g5298
sVTeenagers
p5299
Vteenager
p5300
sVpillar
p5301
Vpillar
p5302
sVdeal
p5303
Vdeal
p5304
sV200
p5305
g5305
sVdead
p5306
g5306
sVwok-like
p5307
g5307
sVdear
p5308
g5308
sVpain
p5309
Vpain
p5310
sVtheatre
p5311
g5311
sVcarts
p5312
Vcart
p5313
sVopposite
p5314
g5314
sVskateboarded
p5315
Vskateboard
p5316
sVmicrowave
p5317
g5317
sVseargeant
p5318
g5318
sVskateboarder
p5319
g5319
sVslurry
p5320
g5320
sVsleigh
p5321
Vsleigh
p5322
sVkeeper
p5323
g5323
sVsuper
p5324
g5324
sVdunking
p5325
g3952
sVyelling
p5326
g1911
sVribs
p5327
Vrib
p5328
sVmagazine
p5329
g5329
sVPowder
p5330
g91
sVMarley
p5331
Vmarley
p5332
sVautomatically
p5333
g5333
sVchimp
p5334
g5334
sVLittle
p5335
Vlittle
p5336
sVdown
p5337
Vdown
p5338
sVlies
p5339
Vlie
p5340
sVcarving
p5341
g1279
sVfrightened
p5342
Vfrighten
p5343
sVanimal's
p5344
Vanimal'
p5345
sVcones
p5346
g2948
sVflying
p5347
Vfly
p5348
sVinspected
p5349
g1877
sVanti-freeze
p5350
g5350
sVfork
p5351
Vfork
p5352
sVform
p5353
g610
sVlanding
p5354
g1935
sVmarinara
p5355
g5355
sVdiaper
p5356
g2693
sVJean
p5357
Vjean
p5358
sVGolden
p5359
Vgolden
p5360
sVprevents
p5361
Vprevent
p5362
sVattached
p5363
g3506
sVhorrifying
p5364
Vhorrify
p5365
sVhurriedly
p5366
g5366
sVabusing
p5367
Vabuse
p5368
sVshih
p5369
g5369
sVsticks
p5370
Vstick
p5371
sVtoss
p5372
g2514
sVcovers
p5373
g1613
sVsticky
p5374
Vsticky
p5375
sVshimmied
p5376
Vshimmy
p5377
sVship
p5378
Vship
p5379
sVmarinated
p5380
g542
sVlocality
p5381
g5381
sVclings
p5382
g1455
sVhanded
p5383
g978
sVPersons
p5384
Vperson
p5385
sVdigital
p5386
g5386
sVwarehouse
p5387
Vwarehouse
p5388
sVgarland
p5389
g825
sVdies
p5390
g3087
sVArnold
p5391
Varnold
p5392
sVfell
p5393
g731
sVauthorities
p5394
Vauthority
p5395
sVtransfers
p5396
g3420
sVpizzas
p5397
Vpizza
p5398
sVpotato
p5399
g5399
sVjacket
p5400
g4926
sVgorilla
p5401
g5401
sVstripping
p5402
g1100
sVteeth
p5403
g5403
sVskis
p5404
g683
sVrelieve
p5405
Vrelieve
p5406
sVwater-jug
p5407
g5407
sVskii
p5408
g5408
sVmanages
p5409
Vmanage
p5410
sVpeole
p5411
g5411
sVskin
p5412
g3480
sVmill
p5413
Vmill
p5414
sVmilk
p5415
g3348
sVsummersault
p5416
g4606
sVfather
p5417
Vfather
p5418
sVanswered
p5419
g3813
sVfinally
p5420
g5420
sVPumpkins
p5421
Vpumpkin
p5422
sVsmartphone
p5423
g5423
sVstring
p5424
g3757
sVforked
p5425
g5352
sVmashing
p5426
g5101
sVstaples
p5427
Vstaple
p5428
sVlimes
p5429
Vlime
p5430
sVdid
p5431
g2172
sVdig
p5432
g2401
sVtravels
p5433
g831
sVitem
p5434
g2611
sVNoodles
p5435
Vnoodle
p5436
sVdip
p5437
g371
sVround
p5438
Vround
p5439
sVshoe
p5440
Vshoe
p5441
sVshave
p5442
g21
sVtalked
p5443
Vtalk
p5444
sVseasoning
p5445
g4687
sVrun
p5446
g2851
sVcutsa
p5447
g5447
sVeye-shadow
p5448
g5448
sVfistful
p5449
g5449
sVfillet
p5450
Vfillet
p5451
sVBatter
p5452
g4011
sVgazebo
p5453
g5453
sVjumps
p5454
g1049
sVfilled
p5455
g1373
sVgrowls
p5456
Vgrowl
p5457
sVscampering
p5458
Vscamper
p5459
sVmussels
p5460
Vmussel
p5461
sVclerk
p5462
Vclerk
p5463
sVmakeup
p5464
g5464
sVfrench
p5465
g5465
sVfrosting
p5466
Vfrost
p5467
sVbox
p5468
g3000
sVboy
p5469
g5469
sVthrashes
p5470
Vthrash
p5471
sVbattling
p5472
g3124
sVbot
p5473
g5473
sVbow
p5474
g578
sVraccoon
p5475
g5475
sVbob
p5476
g2048
sVmassage
p5477
g504
sVteenage
p5478
g5478
sVWhen
p5479
Vwhen
p5480
sVsway
p5481
Vsway
p5482
sVtroops
p5483
g5145
sVsalting
p5484
g1005
sVsake
p5485
g5485
sVintense
p5486
g5486
sVcreamy
p5487
g5487
sVstenographers
p5488
Vstenographer
p5489
sVsomersault
p5490
g5490
sVsharpen
p5491
Vsharpen
p5492
sVyoghurt
p5493
g5493
sVcheckout
p5494
g5494
sVsharing
p5495
Vshare
p5496
sVemoting
p5497
Vemote
p5498
sVfreestyle
p5499
g5499
sVolive
p5500
g5500
sVcapturing
p5501
Vcapture
p5502
sVfly
p5503
g5348
sVbiten
p5504
g5504
sVarmpits
p5505
Varmpit
p5506
sVavoiding
p5507
Vavoid
p5508
sVBath
p5509
Vbath
p5510
sVsoup
p5511
g5511
sVsous
p5512
Vsou
p5513
sVsour
p5514
Vsour
p5515
sVdrags
p5516
Vdraghunt
p5517
sVviolins
p5518
Vviolin
p5519
sVmaking
p5520
g2026
sVarrive
p5521
g862
sVbites
p5522
g255
sVChildren
p5523
Vchildren
p5524
sVscramblers
p5525
Vscrambler
p5526
sVStairmaster
p5527
Vstairmaster
p5528
sVdrawer
p5529
g5529
sVbattered
p5530
g4011
sVskated
p5531
g681
sVCoke
p5532
Vcoke
p5533
sVping
p5534
Vping
p5535
sVtill
p5536
g3556
sVBullets
p5537
Vbullet
p5538
sVsword
p5539
g5539
sVskates
p5540
g681
sVpins
p5541
g3988
sVpathway
p5542
g5542
sVloaves
p5543
Vloave
p5544
sVmap
p5545
Vmap
p5546
sVstaying
p5547
g4832
sVmat
p5548
Vmat
p5549
sVstrokes
p5550
Vstroke
p5551
sVgelatin
p5552
g5552
sVdesigned
p5553
Vdesign
p5554
sVAnimated
p5555
g4147
sVguys
p5556
g4072
sVspoonfuls
p5557
Vspoonful
p5558
sVstroked
p5559
g5551
sVscrambling
p5560
g4599
sVneck
p5561
Vneck
p5562
sVmaybe
p5563
g5563
sVstew-sized
p5564
Vstew-size
p5565
sVtale
p5566
g5566
sVswitch
p5567
g3116
sVchallenge
p5568
Vchallenge
p5569
sVtall
p5570
g5570
sVtalk
p5571
g5444
sVcute
p5572
g5572
sVshoes
p5573
g5441
sVentryway
p5574
g5574
sVmotorcylist
p5575
g5575
sVterrace
p5576
Vterrace
p5577
sVcuts
p5578
g3931
sVpolice
p5579
g2074
sVmonitor
p5580
Vmonitor
p5581
sVsmoothie
p5582
g5582
sVmaid
p5583
g5583
sVmain
p5584
g5584
sVtexas
p5585
Vtexa
p5586
sVviews
p5587
g1783
sVManas
p5588
Vmana
p5589
sVlunch
p5590
Vlunch
p5591
sVtouching
p5592
g343
sVleopards
p5593
Vleopard
p5594
sVkilled
p5595
Vkill
p5596
sVAngel
p5597
Vangel
p5598
sVbeach
p5599
Vbeach
p5600
sVwo[man
p5601
g5601
sVrock
p5602
g2724
sVshowcasing
p5603
Vshowcase
p5604
sVeyelid
p5605
g5605
sVelephants
p5606
Velephant
p5607
sVbookshop
p5608
g5608
sVelephante
p5609
g5609
sVgirl
p5610
g5610
sVspiking
p5611
Vspike
p5612
sVhomme
p5613
g5613
sVemerges
p5614
g4608
sVCrusty
p5615
Vcrusty
p5616
sVleeks
p5617
Vleek
p5618
sVcorrect
p5619
Vcorrect
p5620
sVmonster
p5621
g5621
sVsideways
p5622
Vsideway
p5623
sVpumping
p5624
Vpump
p5625
sVpool's
p5626
Vpool'
p5627
sVcough
p5628
Vcough
p5629
sVunderwear
p5630
g5630
sVcarnival
p5631
g5631
sVwaiter
p5632
g5632
sVdrizzling
p5633
g449
sVheadphones
p5634
Vheadphone
p5635
sVPinhead
p5636
Vpinhead
p5637
sVthing
p5638
g5638
sVjumping
p5639
g1049
sVpepperoni
p5640
g5640
sVwaited
p5641
g596
sVfirst
p5642
g5642
sVcheese
p5643
g1441
sVfleeing
p5644
g4150
sVmid-air
p5645
g5645
sVcrib
p5646
Vcrib
p5647
sVBlack
p5648
Vblack
p5649
sVlong
p5650
Vlong
p5651
sVsuspended
p5652
Vsuspend
p5653
sVcarry
p5654
g2050
sVsounds
p5655
Vsound
p5656
sVcheesy
p5657
g5657
sVlittle
p5658
g5658
sVfiery
p5659
g5659
sVparticipated
p5660
g339
sVspeaking
p5661
g105
sVeyes
p5662
g4159
sVpepperonies
p5663
Vpepperony
p5664
sVbroadcast
p5665
g1479
sVeyed
p5666
g4159
sVbutt
p5667
g2340
sVCorgi
p5668
Vcorgi
p5669
sVingedients
p5670
Vingedient
p5671
sV13
p5672
g5672
sVcracks
p5673
g4139
sVsailing
p5674
g60
sVBacking
p5675
g1760
sVscraping
p5676
g62
sVbrowning
p5677
g1459
sVknives
p5678
Vknive
p5679
sVwere
p5680
g1157
sVgigantic
p5681
g5681
sVstrolls
p5682
g1412
sVgathering
p5683
g2007
sVdash
p5684
Vdash
p5685
sVwinding
p5686
g180
sVcomedian
p5687
g5687
sVkick-boxing
p5688
Vkick-box
p5689
sVoccupied
p5690
Voccupy
p5691
sVclung
p5692
g1455
sVhooded
p5693
Vhood
p5694
sVBalloons
p5695
Vballoon
p5696
sVMurphy
p5697
Vmurphy
p5698
sVHerbs
p5699
Vherb
p5700
sVsquad
p5701
g5701
sVperformance
p5702
g5702
sVchannel
p5703
g251
sVformulas
p5704
Vformula
p5705
sVskinned
p5706
g3480
sVstraightening
p5707
g1115
sVParrot
p5708
Vparrot
p5709
sVtrack
p5710
g3815
sVINTO
p5711
Vinto
p5712
sVenter
p5713
g514
sVpaid
p5714
g5714
sVassault
p5715
g5041
sVsheets
p5716
g3401
sVpair
p5717
Vpair
p5718
sVtugging
p5719
Vtug
p5720
sVsurprising
p5721
g5039
sVfills
p5722
g1373
sVbleating
p5723
Vbleat
p5724
sVgrassland
p5725
g5725
sVhedgehog
p5726
g5726
sVtrotted
p5727
g4949
sVshop
p5728
g1508
sVshot
p5729
g591
sVshow
p5730
g275
sVtakig
p5731
g5731
sVcorner
p5732
g4693
sVladle
p5733
Vladle
p5734
sVcurled
p5735
g1224
sVWe
p5736
Vwe
p5737
sVdice
p5738
g2053
sVenough
p5739
g5739
sVeither
p5740
g5740
sVgrittle
p5741
g5741
sVblack
p5742
g5742
sVget
p5743
Vget
p5744
sVstomp
p5745
g5083
sVspraying
p5746
g4108
sVnearly
p5747
g5747
sVblends
p5748
g424
sVgel
p5749
g5749
sVsideway
p5750
g5750
sVback-flip
p5751
g5751
sVfrolicking
p5752
g3094
sVkeyboards
p5753
g4998
sVchecks
p5754
g227
sVfinishing
p5755
g3578
sVcrumbs
p5756
Vcrumb
p5757
sVpebbly
p5758
g5758
sVballroom
p5759
g5759
sVseat
p5760
g2786
sVsea-shore
p5761
g5761
sVcathes
p5762
Vcathe
p5763
sVseal
p5764
Vseal
p5765
sVcalendar
p5766
Vcalendar
p5767
sVpuma
p5768
g5768
sVswoard
p5769
g5769
sVornament
p5770
Vornament
p5771
sVforecast
p5772
g3965
sVbehind
p5773
g5773
sVchews
p5774
g1337
sVgeometric
p5775
g5775
sVreading
p5776
g1775
sVacross
p5777
Vacros
p5778
sVparent
p5779
g5779
sVEach
p5780
Veach
p5781
sVtub
p5782
Vtub
p5783
sVbopping
p5784
Vbop
p5785
sVsunbather
p5786
g5786
sVdates
p5787
g816
sVrugby
p5788
g5788
sVgrass-field
p5789
g5789
sVaccording
p5790
Vaccord
p5791
sVrestroom
p5792
g5792
sVsomewhere
p5793
g5793
sVamong
p5794
g5794
sVstretches
p5795
g1094
sVstretcher
p5796
g5796
sVcanced
p5797
Vcance
p5798
sVstretched
p5799
g1094
sVarts
p5800
Vart
p5801
sVtabel
p5802
g5802
sVundershirt
p5803
g5803
sVReporters
p5804
Vreporter
p5805
sVshopping
p5806
g1508
sVdisembarks
p5807
g2807
sVoffered
p5808
g608
sVsquash
p5809
Vsquash
p5810
sVspills
p5811
g2201
sVwake
p5812
g4367
sVbmx
p5813
g5813
sVhelcopters
p5814
Vhelcopter
p5815
sVsound
p5816
g5656
sVstacked
p5817
g1788
sVromping
p5818
g3589
sVBathi
p5819
Vbathi
p5820
sVbeachside
p5821
g5821
sVslapping
p5822
Vslap
p5823
sVcock
p5824
Vcock
p5825
sVthen
p5826
g5826
sVrubbing
p5827
g3544
sVcoffee
p5828
g5828
sVsleeping
p5829
Vsleep
p5830
sVmiddle
p5831
Vmiddle
p5832
sVWood
p5833
g10
sVloosing
p5834
g3810
sVreceptacle
p5835
g5835
sVmovements
p5836
Vmovement
p5837
sVbags
p5838
g720
sVdifferent
p5839
g5839
sVdoctor
p5840
g3536
sVsame
p5841
g5841
sVspeech
p5842
g5842
sVaerobics
p5843
Vaerobic
p5844
sVstruggling
p5845
Vstruggle
p5846
sVpan
p5847
Vpan
p5848
sVoil
p5849
g1866
sVassist
p5850
Vassist
p5851
sVrunning
p5852
g2851
sVsumo
p5853
g5853
sVclimbing
p5854
g86
sVlayup
p5855
g5855
sVchoppoing
p5856
Vchoppo
p5857
sVspoonful
p5858
g5858
sVbicyclists
p5859
Vbicyclist
p5860
sVbottle
p5861
g5238
sVbumping
p5862
g911
sVcameramen
p5863
g5863
sVoutdoor
p5864
g5864
sVParamedics
p5865
Vparamedic
p5866
sVadjustments
p5867
Vadjustment
p5868
sVforecasting
p5869
g3965
sVPlastic
p5870
Vplastic
p5871
sVpissing
p5872
Vpiss
p5873
sVguniea
p5874
g5874
sVLions
p5875
Vlion
p5876
sVdipped
p5877
g371
sVpups
p5878
g3967
sVcayenne
p5879
g5879
sVcrocodiles
p5880
Vcrocodile
p5881
sVpile
p5882
g40
sV4
p5883
g5883
sVgrating
p5884
g2510
sVgrip
p5885
Vgrip
p5886
sVgrid
p5887
g5887
sVmom
p5888
g5888
sVlong-haired
p5889
Vlong-hair
p5890
sVrailroad
p5891
Vrailroad
p5892
sVaiming
p5893
g2925
sVgrim
p5894
g5894
sVgrin
p5895
Vgrin
p5896
sVfondling
p5897
Vfondle
p5898
sVvertically
p5899
g5899
sVvending
p5900
Vvend
p5901
sVserves
p5902
g3295
sVfacing
p5903
g2270
sVaudience
p5904
g5904
sVthighs
p5905
Vthigh
p5906
sVstsnd
p5907
g5907
sVserved
p5908
g3295
sVdoll
p5909
g5909
sValternated
p5910
Valternate
p5911
sVerase
p5912
g2129
sVimages
p5913
g1230
sVpasture
p5914
Vpasture
p5915
sVorganizing
p5916
g137
sVMen
p5917
Vmen
p5918
sVOxiClean
p5919
Voxiclean
p5920
sVstew-like
p5921
g5921
sVexpressing
p5922
Vexpress
p5923
sVknife
p5924
Vknife
p5925
sVmeasuring
p5926
g4497
sVPepper
p5927
g4363
sVbroken
p5928
g2709
sVdrums
p5929
g2346
sVroaming
p5930
Vroam
p5931
sVnewscaster
p5932
g5932
sVstations
p5933
g3990
sVisland
p5934
Visland
p5935
sVinsect
p5936
g5936
sVmixer
p5937
g5937
sVmixes
p5938
g308
sVlifing
p5939
Vlife
p5940
sVPaper
p5941
g1486
sVliquior
p5942
g5942
sVairline
p5943
g5943
sVroam
p5944
g5931
sVmixed
p5945
g308
sVroad
p5946
g5946
sVlands
p5947
g1935
sVwhites
p5948
Vwhite
p5949
sVspreading
p5950
g1403
sVimitates
p5951
g4085
sVstrip
p5952
g1100
sVskillet
p5953
g5953
sVshells
p5954
Vshell
p5955
sVdowned
p5956
g5338
sVtrapeze
p5957
g5957
sVdistracted
p5958
Vdistract
p5959
sVstyling
p5960
Vstyle
p5961
sVhandcuffed
p5962
g278
sVlions
p5963
Vlion
p5964
sVspicy
p5965
g5965
sVbuggy
p5966
g5966
sVtripod
p5967
g5967
sVwiping
p5968
Vwipe
p5969
sVwalkway
p5970
g5970
sVshrugs
p5971
g58
sVdownstairs
p5972
Vdownstair
p5973
sVbunnys
p5974
Vbunny
p5975
sVspice
p5976
Vspice
p5977
sVwoman
p5978
g742
sVarranged
p5979
Varrange
p5980
sVromantic
p5981
g5981
sVpitting
p5982
g416
sVdrills
p5983
g860
sVbrother's
p5984
Vbrother'
p5985
sVEddie
p5986
Veddie
p5987
sVarranges
p5988
g5980
sVjabbing
p5989
Vjab
p5990
sVsuitcase
p5991
g5991
sVvideos
p5992
Vvideo
p5993
sVFarmers
p5994
Vfarmer
p5995
sVdeer
p5996
g5996
sVacetate
p5997
g5997
sVfile
p5998
Vfile
p5999
sVfilm
p6000
g769
sVfill
p6001
g1373
sVagain
p6002
g6002
sVpersonnel
p6003
g6003
sVhybrid
p6004
g6004
sVfield
p6005
g2391
sVrollerblading
p6006
Vrollerblade
p6007
sVoutfield
p6008
g6008
sVcantalopue
p6009
g6009
sVstudents
p6010
Vstudent
p6011
sVdecorates
p6012
g1974
sVspicing
p6013
g5977
sVdecorated
p6014
g1974
sVsneeze
p6015
g2164
sVremote
p6016
g6016
sVsewed
p6017
g2841
sVwets
p6018
g2440
sVburrow
p6019
Vburrow
p6020
sVhusky
p6021
g6021
sVstarting
p6022
g1732
sVgrowling
p6023
g5457
sVVan
p6024
Vvan
p6025
sVworms
p6026
g2651
sVtalks
p6027
g5444
sVexpressions
p6028
Vexpression
p6029
sVchildren
p6030
g6030
sVpreserves
p6031
Vpreserve
p6032
sVfoured
p6033
Vfour
p6034
sVshredding
p6035
Vshred
p6036
sVjute
p6037
g6037
sVenjoying
p6038
g2831
sVpuffs
p6039
Vpuff
p6040
sVsitting
p6041
g962
sVhitchhikes
p6042
Vhitchhike
p6043
sVhitchhiker
p6044
g6044
sVrambunctious
p6045
Vrambunctiou
p6046
sVVehicles
p6047
Vvehicle
p6048
sVfall
p6049
g731
sVpurrs
p6050
g3380
sVhitchhiked
p6051
g6043
sVwashing
p6052
Vwash
p6053
sVwater's
p6054
Vwater'
p6055
sVneighborhood
p6056
g6056
sVportable
p6057
g6057
sVgrabs
p6058
g4634
sVDenver
p6059
Vdenver
p6060
sVburger
p6061
g6061
sVOnly
p6062
Vonly
p6063
sVcreatures
p6064
Vcreature
p6065
sVmaterial
p6066
g6066
sVstood
p6067
g2034
sVstool
p6068
g3627
sVabs
p6069
Vab
p6070
sVflouring
p6071
g2085
sVmovement
p6072
g6072
sVvideogame
p6073
g6073
sVsurfer
p6074
g6074
sVsqueezed
p6075
g1117
sVoperating
p6076
g4642
sVaffectionately
p6077
g6077
sVinvestigating
p6078
Vinvestigate
p6079
sVgorrilla
p6080
g6080
sVsurfed
p6081
g820
sVmeowing
p6082
Vmeow
p6083
sVWhole
p6084
Vwhole
p6085
sVantagonizing
p6086
g1600
sVtortoise
p6087
g6087
sVstretching
p6088
g1094
sVairport
p6089
g6089
sVlasagna
p6090
g6090
sVmilky
p6091
g6091
sVnarrow
p6092
Vnarrow
p6093
sV9mm
p6094
g6094
sVskids
p6095
Vskid
p6096
sVtransit
p6097
Vtransit
p6098
sVempties
p6099
g4135
sVarmed
p6100
g4932
sVdachshund
p6101
g6101
sVbarked
p6102
g4930
sVeye
p6103
g4159
sVSkewers
p6104
Vskewer
p6105
sVwiped
p6106
g5969
sVtwo
p6107
g6107
sVcomparing
p6108
Vcompare
p6109
sVsplash
p6110
g1951
sVComing
p6111
g329
sVwobbles
p6112
g243
sVdunks
p6113
g3952
sVwipes
p6114
g5969
sVpawing
p6115
g75
sVstaggering
p6116
Vstagger
p6117
sVchimpanzee
p6118
g6118
sVlanded
p6119
g1935
sVlemons
p6120
Vlemon
p6121
sVparticular
p6122
g6122
sVtown
p6123
g6123
sVsucks
p6124
Vsuck
p6125
sVpatrols
p6126
Vpatrol
p6127
sVsudden
p6128
g6128
sVded
p6129
g6129
sVmarble
p6130
Vmarble
p6131
sVpurchases
p6132
g4585
sVshark
p6133
g1177
sVhamburger
p6134
g6134
sVmargerine
p6135
g6135
sVsynchronized
p6136
Vsynchronize
p6137
sVstacking
p6138
g1788
sVshare
p6139
g5496
sVrainstorm
p6140
g6140
sVnumbers
p6141
Vnumber
p6142
sVpurchased
p6143
g4585
sVpotatos
p6144
Vpotato
p6145
sVsharp
p6146
Vsharp
p6147
sVdrained
p6148
g3699
sVshanked
p6149
Vshank
p6150
sVcomfort
p6151
g4356
sVpressing
p6152
g1736
sVquesadilla
p6153
g6153
sVsacred
p6154
Vsacre
p6155
sVstir
p6156
Vstir
p6157
sVfrilly
p6158
g6158
sVDog
p6159
g386
sVblood
p6160
Vblood
p6161
sVcoming
p6162
g329
sVresponse
p6163
g6163
sVcoat
p6164
g946
sVpaw
p6165
g75
sVeats
p6166
g233
sVbathed
p6167
g5510
sVdragon
p6168
g6168
sVroundish
p6169
g6169
sVDough
p6170
Vdough
p6171
sVplaying
p6172
g471
sVthat's
p6173
Vthat'
p6174
sVinfant
p6175
g6175
sVrifles
p6176
Vrifle
p6177
sVtumbling
p6178
g3873
sVindustrial
p6179
g6179
sVdough
p6180
g6180
sVmessed
p6181
Vmess
p6182
sVyamaimo
p6183
g6183
sVpent
p6184
Vpen
p6185
sV22
p6186
g6186
sVsodium
p6187
g6187
sVhandheld
p6188
g6188
sVDocuments'
p6189
Vdocuments'
p6190
sVpad
p6191
g337
sVcrawls
p6192
g273
sVdolls
p6193
Vdoll
p6194
sVBat
p6195
g2543
sVsomeone
p6196
g6196
sVmales
p6197
Vmale
p6198
sVwalls
p6199
g4338
sVeasily
p6200
g6200
sVstiff
p6201
g6201
sVmicro
p6202
g6202
sVrepeating
p6203
g2208
sVclamp
p6204
g2987
sVdumbbells
p6205
Vdumbbell
p6206
sVchopper
p6207
g6207
sVhouse
p6208
g2500
sVhare
p6209
Vhare
p6210
sVhard
p6211
g6211
sVfoxes
p6212
g557
sVwiggling
p6213
Vwiggle
p6214
sVextended
p6215
g4734
sVfist
p6216
g4864
sVscissors
p6217
g5255
sVcomic
p6218
g6218
sVharp
p6219
Vharp
p6220
sVflower
p6221
g3412
sVacting
p6222
g1219
sVConstruction
p6223
Vconstruction
p6224
sVcyclone
p6225
g6225
sVbulls
p6226
g1202
sVmembers
p6227
Vmember
p6228
sVEZ
p6229
Vez
p6230
sVbacked
p6231
g1760
sVER
p6232
Ver
p6233
sVfaucet
p6234
g6234
sVbenefits
p6235
Vbenefit
p6236
sVdribbles
p6237
g3803
sVClean
p6238
g4051
sVstabs
p6239
g31
sVdone
p6240
g2172
sVTribes
p6241
Vtribe
p6242
sVcups
p6243
g1856
sVrazor
p6244
g6244
sVpaino
p6245
g6245
sVrevive
p6246
Vrevive
p6247
sVleast
p6248
g6248
sVleash
p6249
Vleash
p6250
sVmama
p6251
g6251
sVbegetables
p6252
Vbegetable
p6253
sVmuscles
p6254
Vmuscle
p6255
sVJustin
p6256
Vjustin
p6257
sVLanguage
p6258
Vlanguage
p6259
sVstire
p6260
g6260
sVpark
p6261
g4611
sVpart
p6262
Vpart
p6263
sVdoctors
p6264
g3536
sVbelieve
p6265
Vbelieve
p6266
sVstirs
p6267
g6157
sVrecording
p6268
g858
sVpolishing
p6269
Vpolish
p6270
sVtreated
p6271
Vtreat
p6272
sVdeclare
p6273
Vdeclare
p6274
sVcreases
p6275
Vcrease
p6276
sVtrudges
p6277
Vtrudge
p6278
sVaged
p6279
g1938
sVbackseat
p6280
g6280
sVmountain
p6281
g6281
sVdancing
p6282
g3118
sVcouch
p6283
Vcouch
p6284
sVflares
p6285
Vflare
p6286
sVrowed
p6287
Vrow
p6288
sVlifts
p6289
g459
sVrafters
p6290
Vrafter
p6291
sVzucchini
p6292
g6292
sVeggs
p6293
g1424
sVflute
p6294
Vflute
p6295
sVsalmon
p6296
g6296
sVchart
p6297
Vchart
p6298
sVengagements
p6299
Vengagement
p6300
sVextremely
p6301
g6301
sVrefrigerator
p6302
g6302
sVtri-cycle
p6303
g6303
sVgiggling
p6304
g4057
sVdrifts
p6305
g1541
sVdodging
p6306
g1365
sVsector
p6307
g6307
sVoots
p6308
Voot
p6309
sVwailing
p6310
Vwail
p6311
sVhugging
p6312
g1457
sVhillside
p6313
g6313
sVcrocheted
p6314
g990
sVActors
p6315
Vactor
p6316
sVperched
p6317
Vperch
p6318
sVhopped
p6319
g2291
sVfine
p6320
Vfine
p6321
sVgiant
p6322
g6322
sVdividing
p6323
g800
sVnervous
p6324
Vnervou
p6325
sVmoney
p6326
g6326
sVtouchscreen
p6327
g6327
sVexpress
p6328
g5923
sVferret
p6329
g4444
sVbatter
p6330
g4011
sVbreast
p6331
Vbreast
p6332
sVsill
p6333
g6333
sVmerchandise
p6334
g6334
sVmotorcycles
p6335
Vmotorcycle
p6336
sVgriddle
p6337
Vgriddle
p6338
sVremove
p6339
g3691
sVlion
p6340
g6340
sVindividual
p6341
g6341
sVhalved
p6342
g4637
sVmarinate
p6343
g542
sVhalves
p6344
Vhalve
p6345
sVsmallest
p6346
g6346
sVenvelopes
p6347
Venvelope
p6348
sVburned
p6349
Vburn
p6350
sVvolleys
p6351
g2365
sVpagoda
p6352
g6352
sVaircraft
p6353
g6353
sVfloats
p6354
g1353
sVcubes
p6355
Vcube
p6356
sVfolding
p6357
g5117
sVreverse
p6358
Vreverse
p6359
sVrestaurant
p6360
g6360
sVsparring
p6361
Vspar
p6362
sVcubed
p6363
g6356
sVnewsdesk
p6364
g6364
sVfocused
p6365
Vfocuse
p6366
sVYes
p6367
Vye
p6368
sVbongo
p6369
g6369
sVdanced
p6370
g3118
sVrag
p6371
Vrag
p6372
sVrecycling
p6373
Vrecycle
p6374
sVnewborn
p6375
g6375
sVpanicking
p6376
Vpanic
p6377
sVdances
p6378
g3118
sVdancer
p6379
g6379
sVbongs
p6380
Vbong
p6381
sVliguid
p6382
g6382
sVmikes
p6383
Vmike
p6384
sVSmeone
p6385
Vsmeone
p6386
sVinstrument
p6387
g6387
sVcreate
p6388
g2763
sVdropping
p6389
g3341
sVpeppers
p6390
g4363
sVRitchie
p6391
Vritchie
p6392
sVchiseled
p6393
Vchisele
p6394
sVslips
p6395
g2090
sVBalls
p6396
g2058
sVLiquid
p6397
Vliquid
p6398
sVassorted
p6399
Vassort
p6400
sVgas
p6401
Vgas
p6402
sVDrill
p6403
g860
sVkathe
p6404
g6404
sVfur
p6405
Vfur
p6406
sVraw
p6407
g6407
sVcapsicum
p6408
g6408
sVbill
p6409
g437
sVskiff
p6410
g6410
sVfun
p6411
Vfun
p6412
sVinfront
p6413
g6413
sVviolently
p6414
g6414
sVEleven
p6415
Veleven
p6416
sVitself
p6417
g6417
sVcalender
p6418
Vcalender
p6419
sVfacade
p6420
g6420
sVEaster
p6421
Veaster
p6422
sVbutcher
p6423
Vbutcher
p6424
sVShetty
p6425
Vshetty
p6426
sVstrips
p6427
g1100
sVtupperware
p6428
g6428
sVkeys
p6429
g4659
sVleopard
p6430
g6430
sVhorse-drawn
p6431
g6431
sVgrown-up
p6432
g6432
sVspices
p6433
g5977
sVflags
p6434
g3104
sVbackflip
p6435
g6435
sVshape
p6436
g2309
sVcircling
p6437
g2804
sVcut
p6438
g3931
sVcup
p6439
g1856
sVmarrying
p6440
Vmarry
p6441
sVshouting
p6442
g3603
sVcue
p6443
Vcue
p6444
sVcub
p6445
Vcub
p6446
sVwags
p6447
Vwag
p6448
sVclamping
p6449
g2987
sVexcited
p6450
Vexcite
p6451
sVbin
p6452
Vbin
p6453
sVbig
p6454
g6454
sVbit
p6455
g937
sVcompetitively
p6456
g6456
sVknock
p6457
g1445
sVfollows
p6458
g784
sVflue
p6459
g6459
sVglove
p6460
g4088
sVCouples
p6461
g1827
sVhelicopter-toy
p6462
g6462
sVbamboo
p6463
g6463
sVwalrus
p6464
Vwalru
p6465
sVgardening
p6466
g1967
sVback
p6467
g1760
sVmartial
p6468
g6468
sVkneeding
p6469
Vknee
p6470
sVmirror
p6471
g3616
sVknawing
p6472
Vknaw
p6473
sVaerobic
p6474
g6474
sVpew
p6475
g6475
sVFrozen
p6476
Vfreeze
p6477
sVpen
p6478
g6185
sVscalp
p6479
Vscalp
p6480
sVgallops
p6481
g1448
sVpee
p6482
g3038
sVpea
p6483
g6483
sVnose
p6484
Vnose
p6485
sVpatient
p6486
g6486
sVcostumes
p6487
g760
sVDavid
p6488
Vdavid
p6489
sVlounges
p6490
g1246
sVpacketmathi
p6491
g6491
sVBob
p6492
g2048
sViceskates
p6493
Viceskate
p6494
sVgoods
p6495
Vgood
p6496
sVpiles
p6497
g40
sV&
p6498
g6498
sVoatmeal
p6499
g6499
sVdrama
p6500
g6500
sVpiled
p6501
g40
sVslams
p6502
g3429
sVbeans
p6503
Vbean
p6504
sVharassed
p6505
Vharass
p6506
sVhard-boiled
p6507
Vhard-boil
p6508
sVframed
p6509
g2319
sVexercises
p6510
g2815
sVlesson
p6511
Vlesson
p6512
sVSauce
p6513
g1501
sVdownhill
p6514
g6514
sVjockey
p6515
Vjockey
p6516
sVPancakes
p6517
Vpancake
p6518
sVhomemade
p6519
g6519
sVforward
p6520
Vforward
p6521
sVopponent
p6522
g6522
sVboys
p6523
Vboy
p6524
sVtree-lined
p6525
Vtree-line
p6526
sVunwrapping
p6527
g1375
sVgriddle-like
p6528
g6528
sVjumbo
p6529
g6529
sVrecognition
p6530
g6530
sVgeese
p6531
g6531
sVmetal
p6532
Vmetal
p6533
sVspoonfull
p6534
g6534
sVsingle
p6535
g5105
sVcurb
p6536
Vcurb
p6537
sVnecks
p6538
g5562
sVdragging
p6539
Vdrag
p6540
sVstagecoach
p6541
g6541
sVemanates
p6542
g1829
sVpecks
p6543
g1777
sVbubblegum
p6544
g6544
sVMad
p6545
g4520
sVscurrying
p6546
Vscurry
p6547
sVmayonnaise
p6548
g6548
sVMan
p6549
g1073
sVbrushing
p6550
Vbrush
p6551
sVexplaining
p6552
g96
sVtablespoon
p6553
g6553
sVfiretruck
p6554
g6554
sVprepared
p6555
g3686
sVlens
p6556
Vlen
p6557
sVprepares
p6558
g3686
sVdesert
p6559
Vdesert
p6560
sVcooker
p6561
g6561
sVstrolled
p6562
g1412
sVamused
p6563
g304
sVcooked
p6564
g70
sVroping
p6565
Vrop
p6566
sVpresenting
p6567
g3149
sVstroller
p6568
g6568
sVdiscards
p6569
Vdiscard
p6570
sVbrinjals
p6571
Vbrinjal
p6572
sVoctopus-shaped
p6573
Voctopus-shap
p6574
sVSomeone
p6575
Vsomeone
p6576
sVskiied
p6577
Vskiy
p6578
sVmower
p6579
g6579
sVsaxaphone
p6580
g6580
sVmowed
p6581
Vmow
p6582
sVgravel
p6583
Vgravel
p6584
sVingredient
p6585
g6585
sVdessert
p6586
g6586
sVhuddled
p6587
g2972
sVputting
p6588
Vputt
p6589
sVentire
p6590
g6590
sVsalad
p6591
g6591
sVshock
p6592
Vshock
p6593
sVchokariyo
p6594
g6594
sVsquezzed
p6595
Vsquezze
p6596
sVbleeding
p6597
Vbleed
p6598
sVjoker
p6599
g6599
sVgiving
p6600
g4960
sVanthem
p6601
g6601
sVpaddle
p6602
g289
sVwiggles
p6603
g6214
sVexercise
p6604
g2815
sVbody
p6605
Vbody
p6606
sVsharks
p6607
g1177
sVraccoons
p6608
Vraccoon
p6609
sVexchange
p6610
Vexchange
p6611
sVarond
p6612
g6612
sVpacking
p6613
g2328
sVobjects
p6614
g313
sVsink
p6615
g23
sVothers
p6616
Vother
p6617
sVsing
p6618
g4408
sVplane's
p6619
Vplane'
p6620
sVtoughing
p6621
Vtough
p6622
sVstalks
p6623
Vstalk
p6624
sVdrank
p6625
g2410
sVsauteing
p6626
Vsautee
p6627
sVclimb
p6628
g86
sVmoon-walking
p6629
Vmoon-walk
p6630
sVDoberman
p6631
Vdoberman
p6632
sVbaskets
p6633
Vbasket
p6634
sVnames
p6635
Vname
p6636
sVlimb
p6637
g846
sVpatrol
p6638
g6127
sVlime
p6639
g5430
sVche
p6640
g6640
sVchi
p6641
g6641
sVcut-out
p6642
g6642
sVoils
p6643
g1866
sVbutler
p6644
g6644
sVthemselves
p6645
Vthemselve
p6646
sVcharcoal
p6647
Vcharcoal
p6648
sVcostmetics
p6649
Vcostmetic
p6650
sVtrail
p6651
Vtrail
p6652
sVtrain
p6653
g916
sVarranging
p6654
g5980
sVbilled
p6655
g437
sVtearing
p6656
g842
sVbounces
p6657
g1848
sVleattuce
p6658
g6658
sVpedaled
p6659
Vpedal
p6660
sVclosing
p6661
g4097
sVsnacks
p6662
g3465
sVsanding
p6663
g1369
sVluggag
p6664
g6664
sVexclaims
p6665
Vexclaim
p6666
sVnative
p6667
g6667
sVcurving
p6668
Vcurve
p6669
sVnoises
p6670
Vnoise
p6671
sVboxing
p6672
g3000
sVlamp
p6673
g6673
sVperimeter
p6674
g6674
sVforest
p6675
Vforest
p6676
sVnips
p6677
Vnip
p6678
sVonlookers
p6679
Vonlooker
p6680
sVprofile
p6681
g6681
sVbuildings
p6682
Vbuilding
p6683
sVwaters
p6684
g2877
sVjeroba
p6685
g6685
sVtressel
p6686
g6686
sVbluff
p6687
Vbluff
p6688
sVcuddling
p6689
g2654
sVchasing
p6690
g1766
sVlines
p6691
g1897
sVliner
p6692
g6692
sVlined
p6693
g1897
sVutility-like
p6694
g6694
sVrices
p6695
g354
sVmeter
p6696
Vmeter
p6697
sVtoddled
p6698
Vtoddle
p6699
sVhugged
p6700
g1457
sVBuddha
p6701
Vbuddha
p6702
sVshreds
p6703
g6036
sVbunch
p6704
g2183
sVtwirls
p6705
g4936
sVRaccoons
p6706
Vraccoon
p6707
sVwinning
p6708
Vwin
p6709
sVcoupon
p6710
g6710
sVsquatting
p6711
Vsquat
p6712
sVdad
p6713
g6713
sVtickled
p6714
Vtickle
p6715
sVcutting
p6716
g3931
sVtickles
p6717
g6715
sVinoculations
p6718
Vinoculation
p6719
sVRobin
p6720
Vrobin
p6721
sVpreschool
p6722
g6722
sVstraddling
p6723
Vstraddle
p6724
sVstunts
p6725
g1801
sVlid
p6726
g6726
sVslipping
p6727
g2090
sVcircular
p6728
g6728
sVgazing
p6729
Vgaze
p6730
sVFrog
p6731
g788
sVslumped
p6732
Vslump
p6733
sVtubular
p6734
g6734
sVpopping
p6735
g4422
sVkids
p6736
g5259
sVhedges
p6737
g3135
sVopining
p6738
Vopine
p6739
sVoriental
p6740
g6740
sVflushing
p6741
Vflush
p6742
sVlecture
p6743
g1379
sVwindsurfing
p6744
Vwindsurf
p6745
sVred
p6746
Vred
p6747
sVapproached
p6748
g1662
sVstenographer
p6749
g6749
sVsalami
p6750
g6750
sVapproaches
p6751
g1662
sVretrieves
p6752
g879
sVretriever
p6753
g6753
sVbackwards
p6754
Vbackward
p6755
sVyard
p6756
g6756
sVwagged
p6757
g6448
sVskateboard
p6758
g6758
sVyarn
p6759
Vyarn
p6760
sVbarriers
p6761
Vbarrier
p6762
sVunrolling
p6763
g4174
sVreaches
p6764
g4766
sVRubber
p6765
Vrubber
p6766
sVSubmarine
p6767
Vsubmarine
p6768
sVhurdle
p6769
Vhurdle
p6770
sVmonkey
p6771
g6771
sVstaning
p6772
Vstane
p6773
sVteether
p6774
g6774
sVmessing
p6775
g6182
sVnut
p6776
g2671
sVcabin
p6777
g6777
sVgear
p6778
Vgear
p6779
sVbulldog
p6780
g6780
sVfoamy
p6781
g6781
sVcompletes
p6782
g1251
sVroof-top
p6783
g6783
sVlightening
p6784
Vlighten
p6785
sVLadies
p6786
Vlady
p6787
sVthat
p6788
g6788
sVSLICING
p6789
g199
sVlight
p6790
g4889
sVflashes
p6791
g3130
sVnuzzling
p6792
g3025
sVwakes
p6793
g4367
sVcurves
p6794
g6669
sVpatting
p6795
g5134
sVhave
p6796
g520
sVcurved
p6797
g6669
sVdemonstration
p6798
g6798
sVotehr
p6799
g6799
sVmic
p6800
g6800
sVparks
p6801
g4611
sVmix
p6802
g308
sVmammals
p6803
Vmammal
p6804
sVreciting
p6805
Vrecite
p6806
sVtapir
p6807
g6807
sVcage-like
p6808
g6808
sVSesame
p6809
Vsesame
p6810
sVeight
p6811
g6811
sVstrikes
p6812
g109
sVprisoner
p6813
g6813
sVdraws
p6814
g2425
sVSome
p6815
Vsome
p6816
sVplanks
p6817
Vplank
p6818
sVdeveining
p6819
Vdeveine
p6820
sVkite
p6821
Vkite
p6822
sVdoughs
p6823
Vdough
p6824
sVsettee
p6825
g6825
sVtext
p6826
g6826
sVsupported
p6827
g598
sVhamlet
p6828
g6828
sVrotating
p6829
g2846
sVgrabbed
p6830
g4634
sVJovovich
p6831
Vjovovich
p6832
sVtormenting
p6833
Vtorment
p6834
sVprancing
p6835
g699
sVZiploc
p6836
Vziploc
p6837
sVemitting
p6838
Vemit
p6839
sVfinger
p6840
g72
sVphotographs
p6841
g2998
sVbeachgoers
p6842
Vbeachgoer
p6843
sVstarch
p6844
Vstarch
p6845
sVbeat
p6846
g3032
sVbear
p6847
g4530
sVbeam
p6848
g1642
sVbean
p6849
g6849
sVbeak
p6850
g6850
sVstriped
p6851
Vstripe
p6852
sVareas
p6853
Varea
p6854
sVbath-tub
p6855
g6855
sVorgan
p6856
g6856
sVexcretes
p6857
g1102
sVfixes
p6858
g1920
sVeyebrow
p6859
g6859
sVcalling
p6860
g603
sVshelling
p6861
g5955
sVmascara
p6862
g6862
sVwon't
p6863
Vwill
p6864
sVfixed
p6865
g1920
sVwalking-way
p6866
g6866
sVpuddle
p6867
Vpuddle
p6868
sVstrawberry
p6869
g6869
sVpattern
p6870
g6870
sVHatter
p6871
Vhatter
p6872
sVroutine
p6873
g6873
sVboundary
p6874
g6874
sVRichie
p6875
Vrichie
p6876
sVnudged
p6877
Vnudge
p6878
sVcauliflower
p6879
g6879
sVhorizontally
p6880
g6880
sVdeliver
p6881
g2009
sVtoting
p6882
g1194
sVS
p6883
V
p6884
sVnudges
p6885
g6878
sVmows
p6886
g6582
sVinstant
p6887
g6887
sVtaking
p6888
g971
sVequal
p6889
Vequal
p6890
sVboulders
p6891
Vboulder
p6892
sVtrips
p6893
Vtrip
p6894
sVwringing
p6895
Vwring
p6896
sVswallow
p6897
g1351
sVka-bar
p6898
g6898
sVotherwise
p6899
g6899
sVstatues
p6900
Vstatue
p6901
sVteasing
p6902
Vtease
p6903
sVlaugh
p6904
g1333
sVbespectacled
p6905
Vbespectacle
p6906
sVconvertible
p6907
g6907
sVpouring
p6908
g2376
sVUSA
p6909
Vusa
p6910
sVswimmer
p6911
g6911
sVit's
p6912
Vit'
p6913
sVmuddy
p6914
Vmuddy
p6915
sVSalmon
p6916
Vsalmon
p6917
sVseasoned
p6918
g4687
sVlady's
p6919
Vlady'
p6920
sVantlers
p6921
Vantler
p6922
sVperplexed
p6923
Vperplex
p6924
sVcop
p6925
g324
sVMarlon
p6926
Vmarlon
p6927
sVpreforming
p6928
Vpreform
p6929
sVsausages
p6930
Vsausage
p6931
sVdeep
p6932
g6932
sVangles
p6933
Vangle
p6934
sVbull
p6935
g1202
sVbulb
p6936
g6936
sVsplits
p6937
g484
sVplain
p6938
Vplain
p6939
sVrectangular
p6940
g6940
sVcarved
p6941
g1279
sValmost
p6942
g6942
sVsquid
p6943
g6943
sVhelped
p6944
g3899
sVhaunches
p6945
Vhaunch
p6946
sVwatched
p6947
g1285
sVsequentially
p6948
g6948
sVparticipating
p6949
g339
sVmatchbook
p6950
g6950
sVslammed
p6951
g3429
sVshreded
p6952
Vshrede
p6953
sVtumbles
p6954
g3873
sVshuttle
p6955
Vshuttle
p6956
sVpowerboat
p6957
g6957
sVinjured
p6958
Vinjure
p6959
sVkidnapping
p6960
Vkidnap
p6961
sVreporting
p6962
g83
sVscratched
p6963
g775
sVoranges
p6964
Vorange
p6965
sVinjures
p6966
g6959
sVpastry
p6967
g6967
sVyoga
p6968
g6968
sVcenter
p6969
g6969
sVSpring
p6970
g1845
sVweapon
p6971
g6971
sVstraightness
p6972
Vstraightnes
p6973
sVsets
p6974
g1664
sVposition
p6975
g4350
sVrestuarant
p6976
g6976
sVcoaster
p6977
g6977
sVbarking
p6978
g4930
sVseats
p6979
g2786
sVprotecting
p6980
Vprotect
p6981
sVZebras
p6982
Vzebra
p6983
sVYouTube
p6984
Vyoutube
p6985
sVlake
p6986
g6986
sVbench
p6987
Vbench
p6988
sVadd
p6989
g2989
sVslits
p6990
g2087
sVterrorizes
p6991
Vterrorize
p6992
sVmatch
p6993
g854
sVbarbed-wire
p6994
g6994
sVnewsstand
p6995
g6995
sVdryer
p6996
g6996
sVlike
p6997
g4122
sVcrawled
p6998
g273
sVjournalist
p6999
g6999
sVchick
p7000
g7000
sVworks
p7001
g463
sVsoft
p7002
g7002
sVpropel
p7003
Vpropel
p7004
sVscurried
p7005
g6547
sVhair
p7006
g7006
sVstuffs
p7007
g934
sVproper
p7008
g7008
sVCoffee
p7009
Vcoffee
p7010
sVshrub
p7011
g7011
sVtrimmed
p7012
g2552
sVmasked
p7013
g1321
sVspeak
p7014
g105
sVthinly
p7015
g7015
sVhose
p7016
Vhose
p7017
sVskins
p7018
g3480
sVperiodically
p7019
g7019
sVpanel
p7020
Vpanel
p7021
sVbreak-danced
p7022
Vbreak-dance
p7023
sVabout
p7024
g7024
sVboards
p7025
g1639
sVintroduces
p7026
Vintroduce
p7027
sVropes
p7028
Vrope
p7029
sVzooms
p7030
Vzoom
p7031
sVsocks
p7032
g1883
sVfemale
p7033
g7033
sVSomoene
p7034
Vsomoene
p7035
sVvoilin
p7036
g7036
sVelastic
p7037
g7037
sVvegetables
p7038
Vvegetable
p7039
sVrushes
p7040
g511
sVbus
p7041
Vbus
p7042
sVcoke
p7043
g5533
sVbut
p7044
g7044
sVbun
p7045
g7045
sVbum
p7046
Vbum
p7047
sVbookshelf
p7048
g7048
sVtiller
p7049
Vtiller
p7050
sVbug
p7051
Vbug
p7052
sVpartially
p7053
g7053
sVflip
p7054
g835
sVfire-fox
p7055
g7055
sVsquat
p7056
g6712
sVskating
p7057
g681
sVPesquet
p7058
Vpesquet
p7059
sVrabbits
p7060
Vrabbit
p7061
sVpin
p7062
g3988
sVcircus
p7063
Vcircu
p7064
sVtortila
p7065
g7065
sVtopless
p7066
Vtoples
p7067
sVpig
p7068
g2204
sVwide-eyed
p7069
Vwide-ey
p7070
sVswordfight
p7071
g7071
sVshooting
p7072
g591
sVpit
p7073
g416
sVproceeds
p7074
Vproceed
p7075
sVdressed
p7076
g1339
sVattacked
p7077
g4534
sVsurreal
p7078
g7078
sVoar
p7079
Voar
p7080
sVledge
p7081
g7081
sVdresses
p7082
g1339
sVbundle
p7083
g2629
sVstirred
p7084
g6157
sVbaker
p7085
g7085
sVhiker
p7086
g7086
sVdog's
p7087
Vdog'
p7088
sVbaked
p7089
g4868
sVhitch
p7090
Vhitch
p7091
sVsleep
p7092
g5830
sVtrolley
p7093
g7093
sVfeeding
p7094
Vfee
p7095
sVunder
p7096
g7096
sVevery
p7097
g7097
sVjack
p7098
g4976
sVconfetti
p7099
g7099
sVAthletes
p7100
Vathlete
p7101
sVSteam
p7102
g1155
sVschool
p7103
g3034
sVparrot
p7104
g5709
sVCartoon
p7105
Vcartoon
p7106
sVguiding
p7107
g3668
sVbarracks
p7108
Vbarrack
p7109
sVtweezing
p7110
g4707
sVenjoy
p7111
g2831
sVbicycle
p7112
g693
sVthrought
p7113
g7113
sVwater-pot
p7114
g7114
sVnail
p7115
Vnail
p7116
sVsurrounding
p7117
g3946
sVstreet
p7118
g7118
sVtweezers
p7119
Vtweezer
p7120
sVshining
p7121
Vshine
p7122
sVblue
p7123
Vblue
p7124
sVrice-a-roni
p7125
g7125
sVbeaten
p7126
g3032
sVrevolver
p7127
g7127
sVliberty
p7128
g7128
sVpours
p7129
g2376
sVgreating
p7130
Vgreat
p7131
sVconduct
p7132
Vconduct
p7133
sVsupplies
p7134
Vsupply
p7135
sVLeopards
p7136
Vleopard
p7137
sVinjections
p7138
Vinjection
p7139
sVpats
p7140
g5134
sVkicked
p7141
g4656
sVyanks
p7142
Vyank
p7143
sVapplies
p7144
g2920
sVstudio
p7145
g7145
sVpath
p7146
g7146
sVstares
p7147
g2342
sVmozzarella
p7148
g7148
sVluggage
p7149
g7149
sVleaves
p7150
Vleave
p7151
sVPieces
p7152
g2082
sVjogging
p7153
g3137
sVchanges
p7154
g3200
sVmidway
p7155
g7155
sVPetty
p7156
Vpetty
p7157
sVGroup
p7158
g4661
sVstraw
p7159
Vstraw
p7160
sVvisible
p7161
g7161
sVmeats
p7162
Vmeat
p7163
sVpunching
p7164
g1416
sVmeaty
p7165
g7165
sVswings
p7166
g4702
sVpuled
p7167
Vpule
p7168
sVhospital
p7169
g7169
sVspiky
p7170
g7170
sVbcycle
p7171
g7171
sVspike
p7172
g5612
sVmush
p7173
g7173
sVphone
p7174
Vphone
p7175
sVpouch
p7176
Vpouch
p7177
sVmarsupial
p7178
g7178
sVshoot
p7179
g591
sVma
p7180
g7180
sVtissue
p7181
g4818
sVshook
p7182
g568
sVdecorative
p7183
g7183
sVLory
p7184
Vlory
p7185
sVdolphin
p7186
g7186
sVONe
p7187
Vone
p7188
sVgadgets
p7189
Vgadget
p7190
sVLori
p7191
Vlori
p7192
sVtimes
p7193
g668
sVBanana
p7194
Vbanana
p7195
sVceremony
p7196
g7196
sVmas-arum
p7197
g7197
sVend
p7198
g2338
sVdrummed
p7199
g2346
sVrhinoceros
p7200
Vrhinocero
p7201
sVdrummer
p7202
g7202
sVadjacent
p7203
g7203
sVrawing
p7204
Vraw
p7205
sVgate
p7206
Vgate
p7207
sVkebabs
p7208
Vkebab
p7209
sVcharging
p7210
g3594
sVbadly
p7211
g7211
sVpokes
p7212
g802
sVmess
p7213
g6182
sVlump
p7214
Vlump
p7215
sVwhittle
p7216
Vwhittle
p7217
sVmesh
p7218
Vmesh
p7219
sVtidying
p7220
Vtidy
p7221
sVparallel
p7222
Vparallel
p7223
sVgirders
p7224
Vgirder
p7225
sVsnarling
p7226
Vsnarl
p7227
sVJapanese
p7228
Vjapanese
p7229
sVdaredevil
p7230
g7230
sVupside
p7231
g7231
sVjungle
p7232
g7232
sVCattle
p7233
Vcattle
p7234
sValoud
p7235
g7235
sVvapor
p7236
g7236
sVunsteady
p7237
Vunsteady
p7238
sVover
p7239
g7239
sVclench
p7240
Vclench
p7241
sVoven
p7242
g7242
sVbeside
p7243
g7243
sVwriting
p7244
g1636
sVkickboxes
p7245
Vkickbox
p7246
sVwhips
p7247
g2038
sVKids
p7248
g5259
sVtourist
p7249
g7249
sVprevented
p7250
g5362
sVpinkish
p7251
g7251
sVshadows
p7252
g533
sVswaying
p7253
g5482
sVpotatoes
p7254
Vpotatoe
p7255
sVFour
p7256
Vfour
p7257
sVfrantically
p7258
g7258
sVeach
p7259
g7259
sVSilencerco
p7260
Vsilencerco
p7261
sVunharmed
p7262
Vunharm
p7263
sVsigning
p7264
g714
sVcelebrating
p7265
g735
sVjuggling
p7266
Vjuggle
p7267
sVcombining
p7268
g1090
sVrefriderator
p7269
g7269
sVgoo
p7270
g7270
sVstunting
p7271
g1801
sVdriving
p7272
g998
sVhaired
p7273
Vhair
p7274
sVGilmour
p7275
Vgilmour
p7276
sVwashed
p7277
g6053
sVlaid
p7278
g623
sVgot
p7279
g5744
sVwashes
p7280
g6053
sVstringer
p7281
g7281
sVinot
p7282
g7282
sVscopes
p7283
Vscope
p7284
sVcarcass
p7285
Vcarcas
p7286
sVambled
p7287
Vamble
p7288
sVchisels
p7289
Vchisel
p7290
sVformation
p7291
g7291
sVsplashes
p7292
g1951
sVW
p7293
Vw
p7294
sVSoldiers
p7295
g2952
sVacrobat
p7296
g7296
sVgrasses
p7297
g593
sVritual
p7298
g7298
sVdays
p7299
Vday
p7300
sVoutfits
p7301
Voutfit
p7302
sVTriforce
p7303
Vtriforce
p7304
sVsoda
p7305
g7305
sVonto
p7306
g7306
sVrand
p7307
g7307
sValready
p7308
g7308
sVcharacters
p7309
g5284
sVArsineo
p7310
Varsineo
p7311
sVgazelle
p7312
g7312
sVknifes
p7313
g5925
sVtoy
p7314
g7314
sVdiscotheque
p7315
g7315
sVtop
p7316
g497
sVtoo
p7317
g7317
sVwildly
p7318
g7318
sVtoe
p7319
Vtoe
p7320
sVceiling
p7321
Vceil
p7322
sVtool
p7323
Vtool
p7324
sVbrushes
p7325
g6551
sVtook
p7326
g971
sVankle
p7327
g7327
sVweightlifting
p7328
Vweightlift
p7329
sVwestern
p7330
g7330
sVnudging
p7331
g6878
sVbrushed
p7332
g6551
sVreclining
p7333
g341
sVroles
p7334
Vrole
p7335
sVclasses
p7336
Vclass
p7337
sVflame
p7338
g3204
sVpaved
p7339
Vpave
p7340
sVbridge
p7341
Vbridge
p7342
sVdonkey
p7343
g7343
sVfashion
p7344
Vfashion
p7345
sVGere
p7346
Vgere
p7347
sVran
p7348
g2851
sVdrip
p7349
Vdrip
p7350
sVtalking
p7351
g5444
sVrat
p7352
Vrat
p7353
sVpompoms
p7354
Vpompom
p7355
sVgranulated
p7356
Vgranulate
p7357
sVleafs
p7358
Vleaf
p7359
sVrotors
p7360
Vrotor
p7361
sVleafy
p7362
g7362
sVriden
p7363
g7363
sVhispanic
p7364
g7364
sVsnow
p7365
g5183
sVballing
p7366
g2058
sVlaughed
p7367
g1333
sVrides
p7368
g2080
sVrider
p7369
g7369
sVgirl's
p7370
Vgirl'
p7371
sVsQuba
p7372
Vsquba
p7373
sVsunflower's
p7374
Vsunflower'
p7375
sVthough
p7376
g7376
sVShooter
p7377
Vshooter
p7378
sVSheff
p7379
Vsheff
p7380
sVarguing
p7381
g420
sVtreats
p7382
g6272
sVflop
p7383
g2137
sVguiter
p7384
g7384
sVfreeway
p7385
g7385
sVYanni
p7386
Vyanni
p7387
sVpineapple
p7388
g7388
sVswerves
p7389
Vswerve
p7390
sVIts
p7391
Vit
p7392
sVbait
p7393
Vbait
p7394
sVlabels
p7395
Vlabel
p7396
sVhousefly
p7397
g7397
sVpops
p7398
g4422
sVradio
p7399
Vradio
p7400
sVpopt
p7401
g7401
sVearth
p7402
Vearth
p7403
sVchewed
p7404
g1337
sVpeasants
p7405
Vpeasant
p7406
sVcarbine
p7407
g7407
sVgretting
p7408
Vgret
p7409
sVexcitedly
p7410
g7410
sVrinsing
p7411
g4654
sVmixture
p7412
g7412
sVsunglasses
p7413
Vsunglass
p7414
sVwatch
p7415
g1285
sVfluid
p7416
g7416
sVshutting
p7417
g1132
sVwedding
p7418
Vwed
p7419
sVreport
p7420
g83
sVknocks
p7421
g1445
sVrowing
p7422
g6288
sVlicking
p7423
g1497
sVtwice
p7424
g7424
sVthree-legged
p7425
Vthree-leg
p7426
sVshots
p7427
Vshot
p7428
sVautomatic
p7429
g7429
sVboulon
p7430
g7430
sVswept
p7431
g3605
sVliquor
p7432
Vliquor
p7433
sVsharpens
p7434
g5492
sVantifreeze
p7435
g7435
sVdisturbing
p7436
Vdisturb
p7437
sVnoodles
p7438
Vnoodle
p7439
sVslotted
p7440
Vslot
p7441
sVinterviewing
p7442
g1583
sVroto-tiller
p7443
g7443
sVcontinually
p7444
g7444
sVmud
p7445
Vmud
p7446
sVmug
p7447
Vmug
p7448
sVdiscovers
p7449
Vdiscover
p7450
sVapproach
p7451
g1662
sVColored
p7452
Vcolore
p7453
sVsipper
p7454
g7454
sVdogg's
p7455
Vdogg'
p7456
sVnews
p7457
Vnew
p7458
sVdrowsy
p7459
g7459
sVextracts
p7460
g5034
sVfacet
p7461
Vfacet
p7462
sVplayers
p7463
Vplayer
p7464
sVgames
p7465
g4202
sVfaces
p7466
g2270
sVtowels
p7467
Vtowel
p7468
sVhysterically
p7469
g7469
sVbathroom
p7470
g7470
sVbeef
p7471
Vbeef
p7472
sVbikinis
p7473
Vbikini
p7474
sVshiitake
p7475
g7475
sVbeen
p7476
g1157
sVquickly
p7477
g7477
sVsubmarine
p7478
g7478
sVbeer
p7479
g7479
sVcurried
p7480
Vcurry
p7481
sVcontainers
p7482
Vcontainer
p7483
sVanchors
p7484
g5221
sVpecked
p7485
g1777
sVcatch
p7486
g3404
sVglides
p7487
g1256
sVcracked
p7488
g4139
sVpyramid
p7489
Vpyramid
p7490
sVhandrail
p7491
g7491
sVbroth
p7492
g7492
sVlollypop
p7493
g7493
sVMens
p7494
Vmen
p7495
sVexterior
p7496
g7496
sVinteracts
p7497
g2333
sVHorses
p7498
g3984
sVcontaining
p7499
g900
sVemptying
p7500
g4135
sVforehead
p7501
g7501
sVcomplex
p7502
g7502
sVseveral
p7503
g7503
sVmoose
p7504
g7504
sVbasketballs
p7505
Vbasketball
p7506
sVwelsh
p7507
g2669
sVmicrophone
p7508
g7508
sVgreeted
p7509
g2687
sVhalf-moon
p7510
g7510
sVMorning
p7511
Vmorn
p7512
sVcycle
p7513
g3530
sVmother's
p7514
Vmother'
p7515
sVocean
p7516
g7516
sVmother
p7517
Vmother
p7518
sVfistfight
p7519
g7519
sVassembling
p7520
g3665
sVstenography
p7521
g7521
sVLots
p7522
g389
sVlaptop
p7523
g7523
sVbruise
p7524
Vbruise
p7525
sVrodent
p7526
g7526
sVtransporting
p7527
g653
sVrhythmically
p7528
g7528
sVteenaged
p7529
Vteenage
p7530
sVfistfighting
p7531
Vfistfight
p7532
sVfurry
p7533
g7533
sVpharmacy
p7534
g7534
sVteenager
p7535
g7535
sVgave
p7536
g4960
sVturquoise
p7537
g7537
sVbands
p7538
g2711
sVbreaks
p7539
g2709
sVThumper
p7540
Vthumper
p7541
sVCorona
p7542
Vcorona
p7543
sVdescending
p7544
g2959
sVapart
p7545
g7545
sVmelting
p7546
g1948
sVappearing
p7547
g3173
sVsuper-wide
p7548
g7548
sVhunk
p7549
g7549
sVofficer
p7550
g4028
sVhung
p7551
g12
sVplaer
p7552
g7552
sVDwayne
p7553
Vdwayne
p7554
sVtoddler's
p7555
Vtoddler'
p7556
sVpetting
p7557
g666
sVsponge
p7558
Vsponge
p7559
sVmeters
p7560
g6697
sVescape
p7561
g5095
sVtutorial
p7562
g7562
sVice
p7563
g696
sVrhino
p7564
g7564
sVChris
p7565
Vchri
p7566
sVplantain
p7567
g7567
sVchristmas
p7568
Vchristma
p7569
sVcord
p7570
Vcord
p7571
sVcore
p7572
g1518
sVbrawl
p7573
Vbrawl
p7574
sVwa7ter
p7575
g7575
sVmechanized
p7576
Vmechanize
p7577
sVcowboy
p7578
g7578
sVattacks
p7579
g4534
sVplying
p7580
Vply
p7581
sVsurround
p7582
g3946
sVdinner
p7583
g7583
sVcoiled
p7584
Vcoil
p7585
sVcurry
p7586
g7481
sVBirds
p7587
Vbird
p7588
sVdials
p7589
g4142
sVbath
p7590
g5510
sVfinely
p7591
g7591
sVbats
p7592
g2543
sVrounds
p7593
g5439
sVsneezing
p7594
g2164
sVstuck
p7595
g5371
sVfought
p7596
g1595
sVgil
p7597
g7597
sVtree-trunk
p7598
g7598
sVhead
p7599
g1572
sVmedium
p7600
g7600
sVRocky
p7601
Vrocky
p7602
sVremoves
p7603
g3691
sVblow-torching
p7604
Vblow-torch
p7605
sVraft
p7606
Vraft
p7607
sVLemurs
p7608
Vlemur
p7609
sVremoved
p7610
g3691
sVhitch-hike
p7611
g7611
sVportions
p7612
g4841
sVDomestic
p7613
Vdomestic
p7614
sVmannequins
p7615
Vmannequin
p7616
sVlatch
p7617
Vlatch
p7618
sVtrio
p7619
g7619
sVswatted
p7620
g2776
sVchuckling
p7621
Vchuckle
p7622
sVpipe
p7623
g1513
sVoutstretched
p7624
Voutstretch
p7625
sVno
p7626
g7626
sVtip
p7627
g4892
sVmeows
p7628
Vmeow
p7629
sVsetting
p7630
g1664
sVpapers
p7631
g1486
sVsqueals
p7632
Vsqueal
p7633
sVpicture
p7634
g4099
sVwombat
p7635
g7635
sVtoad
p7636
g7636
sVfootball
p7637
g7637
sVyounger
p7638
g7638
sVbullet
p7639
g7639
sVsacks
p7640
g2714
sVvigorously
p7641
g7641
sVyacht
p7642
Vyacht
p7643
sVAmerican
p7644
Vamerican
p7645
sVspanked
p7646
Vspank
p7647
sVfasten
p7648
g660
sVmulti-serve
p7649
g7649
sVbackward
p7650
g7650
sVstacks
p7651
g1788
sVcoach
p7652
Vcoach
p7653
sVrod
p7654
g7654
sVfocus
p7655
Vfocus
p7656
sVleads
p7657
g2003
sVdisplaying
p7658
g3301
sVrow
p7659
g6288
sVappears
p7660
g3173
sVenvironment
p7661
g7661
sVmelon
p7662
g7662
sVhammers
p7663
g384
sVband's
p7664
Vband'
p7665
sVcoos
p7666
Vcoo
p7667
sVtrident
p7668
g7668
sVsloppy
p7669
g7669
sVbastng
p7670
g7670
sVcook
p7671
g70
sVcool
p7672
g3013
sVclouds
p7673
g4410
sVimpressive
p7674
g7674
sVlevel
p7675
Vlevel
p7676
sVposts
p7677
g3041
sVbrother
p7678
g7678
sVpork
p7679
g7679
sVdrier
p7680
g7680
sVsays
p7681
g331
sVsandcastle
p7682
g7682
sVdried
p7683
g147
sVJane
p7684
Vjane
p7685
sVbake
p7686
g4868
sVRed
p7687
g6747
sVdrinks
p7688
g2410
sVstands
p7689
g2034
sVBruce
p7690
Vbruce
p7691
sVmachinthi
p7692
g7692
sVgoes
p7693
g1024
sVcorn
p7694
Vcorn
p7695
sVwater
p7696
g2877
sVfilmed
p7697
g769
sVbaseball
p7698
g7698
sVgroups
p7699
g4661
sVunidentified
p7700
Vunidentify
p7701
sVsharpening
p7702
g5492
sVcinnamon
p7703
g7703
sVweird
p7704
g7704
sVcombs
p7705
g2438
sVshelled
p7706
g5955
sVpotatoe
p7707
g7707
sVtuxedo
p7708
g7708
sVminibike
p7709
g7709
sVswallowed
p7710
g1351
sVsledgehammer
p7711
Vsledgehammer
p7712
sVbulbs
p7713
Vbulb
p7714
sVwicketkeeper
p7715
g7715
sVhandled
p7716
g1738
sVsports
p7717
g3492
sVbarbequed
p7718
Vbarbequ
p7719
sVhandles
p7720
g1738
sVprey
p7721
Vprey
p7722
sViphone
p7723
g7723
sVfrothy
p7724
g7724
sVsoccar
p7725
g7725
sVands
p7726
Vand
p7727
sVteased
p7728
g6903
sVclicking
p7729
Vclick
p7730
sVchocolate
p7731
g7731
sVemployee
p7732
g7732
sVchocolaty
p7733
g7733
sVedible
p7734
g7734
sVGerman
p7735
Vgerman
p7736
sVaircrafts
p7737
Vaircraft
p7738
sVmeatball
p7739
g7739
sVlaughter
p7740
g7740
sVsemi-automatic
p7741
g7741
sVgarlics
p7742
Vgarlic
p7743
sVdropper
p7744
g7744
sVstream
p7745
g2361
sVIngredients
p7746
Vingredient
p7747
sVstroke
p7748
g5551
sVdropped
p7749
g3341
sVcounting
p7750
Vcount
p7751
sVsailboat
p7752
g7752
sVUnderwood
p7753
Vunderwood
p7754
sV1
p7755
g7755
sVstenograph
p7756
Vstenograph
p7757
sVspeaks
p7758
g105
sVcrashes
p7759
g733
sVrun-way
p7760
g7760
sVdazzle
p7761
Vdazzle
p7762
sVcrashed
p7763
g733
sVbirthday
p7764
g7764
sVCake
p7765
Vcake
p7766
sVsipping
p7767
g1671
sVwagging
p7768
g6448
sVclassroom
p7769
g7769
sVliquid
p7770
g7770
sVmanand
p7771
g7771
sVreaper
p7772
g7772
sVlagoon
p7773
g7773
sVacts
p7774
g1219
sVducklings
p7775
Vduckling
p7776
sVWhite
p7777
g5949
sVblocked
p7778
g2106
sVhe's
p7779
Vhe'
p7780
sVcheerleaders
p7781
Vcheerleader
p7782
sVplatform
p7783
g7783
sVfirring
p7784
Vfir
p7785
sVcontinue
p7786
g1969
sVfarmer
p7787
g7787
sVUsing
p7788
g3630
sVfreshly
p7789
g7789
sVgray
p7790
g7790
sVgourmet
p7791
g7791
sVlorises
p7792
Vlorise
p7793
sVwagon
p7794
Vwagon
p7795
sVslumps
p7796
g6733
sVnodding
p7797
Vnod
p7798
sVindividually
p7799
g7799
sVbusty
p7800
g7800
sVtrunks
p7801
Vtrunk
p7802
sVtorch
p7803
g509
sVsweet-potato
p7804
g7804
sVrecycables
p7805
Vrecycable
p7806
sVcatching
p7807
g3404
sVzebra
p7808
g7808
sVtreading
p7809
Vtread
p7810
sVprocessed
p7811
g2077
sVcloves
p7812
Vclove
p7813
sVeagle
p7814
g7814
sVattended
p7815
Vattend
p7816
sVbolts
p7817
Vbolt
p7818
sVtempura
p7819
g7819
sVwaterfalls
p7820
Vwaterfall
p7821
sVmarionette
p7822
g7822
sVuniformed
p7823
g3178
sVmanikin
p7824
g7824
sVroosters
p7825
Vrooster
p7826
sVkamaboko
p7827
g7827
sVflare
p7828
g6286
sVSign
p7829
g714
sVmotion
p7830
Vmotion
p7831
sVturn
p7832
g952
sVbutterflies
p7833
Vbutterfly
p7834
sVplace
p7835
g2516
sVswing
p7836
g4702
sVturf
p7837
Vturf
p7838
sVview
p7839
g1783
sVcreepily
p7840
g7840
sVteammates
p7841
Vteammate
p7842
sVvandalizing
p7843
Vvandalize
p7844
sVsoaring
p7845
Vsoar
p7846
sVfetches
p7847
g1771
sVwaterpark
p7848
g7848
sVgiven
p7849
g4960
sVmolded
p7850
Vmold
p7851
sVplastic
p7852
g7852
sVcooling
p7853
g3013
sVcircl
p7854
g7854
sVmasalo
p7855
g7855
sVwhite
p7856
g5949
sVgives
p7857
g4960
sVexploring
p7858
g808
sVhug
p7859
g1457
sVsix-pack
p7860
g7860
sVreleases
p7861
Vrelease
p7862
sVseason
p7863
g4687
sVPresley
p7864
Vpresley
p7865
sVcubing
p7866
g6356
sVreleased
p7867
g7862
sVCinnamon
p7868
Vcinnamon
p7869
sVcirculates
p7870
Vcirculate
p7871
sVholder
p7872
g7872
sVwide
p7873
g7873
sVcards
p7874
g3378
sVBread
p7875
g1660
sVpowder
p7876
g91
sVand
p7877
g7877
sVanf
p7878
g7878
sVtwisting
p7879
g1125
sVskate-scooter
p7880
g7880
sVant
p7881
g7881
sVmates
p7882
Vmate
p7883
sVGrated
p7884
g2510
sVsells
p7885
g3998
sVmarathon
p7886
g7886
sVsuperman
p7887
g7887
sVupholstered
p7888
Vupholster
p7889
sVsilhouette
p7890
g918
sVdining
p7891
Vdine
p7892
sVanimation
p7893
g7893
sVresembling
p7894
g1474
sVsurf
p7895
g820
sVsure
p7896
g7896
sVmultiple
p7897
g7897
sVtornado
p7898
g7898
sVfalls
p7899
g731
sVboiling
p7900
g494
sVseafood
p7901
g7901
sVshooter
p7902
g7902
sVcuddled
p7903
g2654
sVapplicator
p7904
g7904
sVquantity
p7905
g7905
sVslope
p7906
Vslope
p7907
sVperch
p7908
g6318
sVrecipe
p7909
g7909
sVSurya
p7910
Vsurya
p7911
sVtrot
p7912
g4949
sVcrime
p7913
g7913
sVwood
p7914
g10
sVlighted
p7915
g4889
sVhooting
p7916
Vhoot
p7917
sVjazz
p7918
Vjazz
p7919
sVbareback
p7920
g7920
sVlighter
p7921
g7921
sVreveal
p7922
Vreveal
p7923
sVmewed
p7924
Vmew
p7925
sVskewered
p7926
g6105
sValuminum
p7927
g7927
sVcumin
p7928
g7928
sVnaked
p7929
Vnake
p7930
sVpenguins
p7931
Vpenguin
p7932
sVclowns
p7933
g3881
sVthrough
p7934
g7934
sVbought
p7935
g1264
sVdiscussing
p7936
Vdiscuss
p7937
sVmicrophones
p7938
Vmicrophone
p7939
sVpicnic
p7940
Vpicnic
p7941
sVinnards
p7942
Vinnard
p7943
sVsimmering
p7944
Vsimmer
p7945
sVignores
p7946
Vignore
p7947
sVparking
p7948
g4611
sVcollects
p7949
g2241
sVsmiling
p7950
g1341
sVcat's
p7951
Vcat'
p7952
sVfenced-in
p7953
g7953
sVrolercoaster
p7954
g7954
sVbicyclist
p7955
g7955
sVways
p7956
Vway
p7957
sVweapons
p7958
Vweapon
p7959
sVoutside
p7960
g7960
sVsungalsses
p7961
Vsungalss
p7962
sVYoutube
p7963
Vyoutube
p7964
sVguitar
p7965
g7965
sVcomedic
p7966
g7966
sVcome
p7967
g329
sVbite-sized
p7968
Vbite-size
p7969
sVloris
p7970
Vlori
p7971
sVrinsed
p7972
g4654
sVbunks
p7973
Vbunk
p7974
sVcolor
p7975
g7975
sVpot
p7976
g5277
sVhunched
p7977
Vhunch
p7978
sVcobbled
p7979
g2444
sVpop
p7980
g4422
sVsatisfaction
p7981
g7981
sVpole
p7982
g4383
sVpom
p7983
g7983
sVpencilling
p7984
g2043
sVdribbled
p7985
g3803
sVpod
p7986
Vpod
p7987
sVpoll
p7988
Vpoll
p7989
sVNumerous
p7990
Vnumerou
p7991
sVstroking
p7992
g5551
sVteammate
p7993
g7993
sVhelicopter
p7994
g7994
sVcords
p7995
g7571
sVschoolboy
p7996
g7996
sVengine
p7997
g7997
sVdirection
p7998
g7998
sVbreak-dance
p7999
g7999
sVtiger
p8000
g8000
sVsquirrels
p8001
Vsquirrel
p8002
sVpilot
p8003
Vpilot
p8004
sVpaying
p8005
Vpay
p8006
sVmount
p8007
g3234
sVcash
p8008
Vcash
p8009
sVcast
p8010
Vcast
p8011
sVslippery
p8012
g8012
sVshops
p8013
g1508
sVventriloquist
p8014
g8014
sVslippers
p8015
Vslipper
p8016
sVvest
p8017
Vvest
p8018
sVSlow
p8019
g1016
sVSaki
p8020
Vsaki
p8021
sVhurting
p8022
g3504
sVcouples
p8023
g1827
sVgood
p8024
g8024
sVpunched
p8025
g1416
sVparatha
p8026
g8026
sVpruning
p8027
g3333
sVagitates
p8028
Vagitate
p8029
sVhelmet
p8030
g8030
sVNails
p8031
g7116
sVbowl
p8032
g216
sVcoarsely
p8033
g8033
sVcheck
p8034
g227
sVshifts
p8035
Vshift
p8036
sVcatfish
p8037
g8037
sVbuys
p8038
g1264
sVisle
p8039
g8039
sVtoweling
p8040
Vtowele
p8041
sVaross
p8042
Varos
p8043
sVbarefoot
p8044
g8044
sVIS
p8045
g1157
sVdriver
p8046
g8046
sVdrives
p8047
g998
sVweed
p8048
Vweed
p8049
sVdriven
p8050
g998
sVpersons
p8051
Vperson
p8052
sVstatue
p8053
g8053
sVchanging
p8054
g3200
sVcartoon
p8055
g8055
sVomelette
p8056
g8056
sVcaressing
p8057
Vcaress
p8058
sVrecital
p8059
g8059
sVwithout
p8060
g8060
sVflakes
p8061
Vflake
p8062
sVIn
p8063
Vin
p8064
sVmodel
p8065
g651
sVDomesticated
p8066
Vdomesticate
p8067
sVbodies
p8068
g6606
sVPink
p8069
g4457
sVUnited
p8070
Vunite
p8071
sVwhen
p8072
g8072
sVactress
p8073
Vactres
p8074
sVclou
p8075
g8075
sVkill
p8076
g5596
sVPins
p8077
g3988
sVkneeling
p8078
g27
sVcaptured
p8079
g5502
sVblow
p8080
g378
sVannouncement
p8081
g8081
sVwomans
p8082
g742
sVseems
p8083
g1958
sVtin
p8084
Vtin
p8085
sVlets
p8086
g2012
sVsamples
p8087
Vsample
p8088
sVpotato's
p8089
Vpotato'
p8090
sVengulfed
p8091
Vengulf
p8092
sVstyles
p8093
g5961
sVMany
p8094
Vmany
p8095
sVfridge
p8096
g8096
sVstyled
p8097
g5961
sVtowel
p8098
g7468
sVwrastle
p8099
g8099
sVsternly
p8100
g8100
sVSomething
p8101
Vsomethe
p8102
sVsieved
p8103
g3195
sVtower
p8104
g8104
sVcompetition
p8105
g8105
sVcowboys
p8106
Vcowboy
p8107
sVintact
p8108
g8108
sVfloured
p8109
g2085
sVprovided
p8110
g4557
sVslice
p8111
g199
sVshirtless
p8112
Vshirtles
p8113
sVstops
p8114
g3933
sVmoon
p8115
g1054
sVprovides
p8116
g4557
sVJute
p8117
Vjute
p8118
sVdiced
p8119
g2053
sVwelcome
p8120
Vwelcome
p8121
sVitching
p8122
Vitch
p8123
sVnails
p8124
g7116
sVcommunicate
p8125
g3876
sVpom-poms
p8126
Vpom-pom
p8127
sVdices
p8128
g2053
sVon
p8129
g8129
sVoh
p8130
g8130
sVjeep
p8131
g8131
sVof
p8132
g8132
sVshrimp
p8133
g1984
sVstand
p8134
g2034
sVwaded
p8135
g1239
sVox
p8136
g8136
sVot
p8137
g8137
sVos
p8138
Vo
p8139
sVor
p8140
g8140
sVknits
p8141
g229
sVladies
p8142
Vlady
p8143
sVinstruments
p8144
Vinstrument
p8145
sVtiding
p8146
Vtide
p8147
sVrising
p8148
Vrise
p8149
sVPandas
p8150
Vpanda
p8151
sVthere
p8152
g8152
sVwater-tub
p8153
g8153
sVfish
p8154
g8154
sVilluminated
p8155
g4492
sVkittens
p8156
g2836
sVeyeliner
p8157
g8157
sVamongst
p8158
g8158
sVcabinet
p8159
g8159
sVapplying
p8160
g2920
sVFerrets
p8161
g4444
sVbouillon
p8162
g8162
sVgrass
p8163
g593
sVstrongly
p8164
g8164
sVtoilet
p8165
g8165
sVRice-a-roni
p8166
Vrice-a-roni
p8167
sVavacado
p8168
g8168
sVpadling
p8169
Vpadle
p8170
sVrubbed
p8171
g3544
sVhangman's
p8172
Vhangman'
p8173
sVswords
p8174
Vsword
p8175
sVrubber
p8176
g6766
sV5
p8177
g8177
sVstumbles
p8178
Vstumble
p8179
sVtrash
p8180
Vtrash
p8181
sVpaddy
p8182
g8182
sVpillows
p8183
g3209
sVseparate
p8184
g2634
sVsymbol
p8185
Vsymbol
p8186
sVcordless
p8187
Vcordles
p8188
sVdashi
p8189
g8189
sVhardware
p8190
g8190
sVbullets
p8191
Vbullet
p8192
sVCNC
p8193
Vcnc
p8194
sVserious
p8195
Vseriou
p8196
sVcalls
p8197
g603
sVwife
p8198
g8198
sVcurve
p8199
g6669
sVcurvy
p8200
g8200
sVanimator
p8201
g8201
sVall
p8202
g8202
sVchinese
p8203
g8203
sVTube
p8204
g1197
sVseals
p8205
g5765
sVdisc
p8206
Vdisc
p8207
sVparmesan
p8208
g8208
sVdish
p8209
g2252
sVfollow
p8210
g784
sVdisk
p8211
g8211
sVbeaters
p8212
Vbeater
p8213
sVlining
p8214
g1897
sVingrediants
p8215
Vingrediant
p8216
sVFlag
p8217
g3104
sVTrees
p8218
g280
sVdejectedly
p8219
g8219
sVpresentation
p8220
g8220
sVliter
p8221
g8221
sVsong
p8222
g8222
sVfar
p8223
g8223
sVgrinds
p8224
g3463
sVfat
p8225
Vfat
p8226
sVCook
p8227
g70
sVfan
p8228
Vfan
p8229
sVskewering
p8230
g6105
sVbubbles
p8231
g1249
sVtreating
p8232
g6272
sVJuice
p8233
Vjuice
p8234
sVsaxophone
p8235
g8235
sVsalute
p8236
Vsalute
p8237
sVteh
p8238
g8238
sVcockatoo
p8239
g8239
sVten
p8240
g8240
sVtea
p8241
g8241
sVdesign
p8242
g5554
sVwhat
p8243
g8243
sVrectangles
p8244
Vrectangle
p8245
sVcrust
p8246
Vcrust
p8247
sVversion
p8248
g8248
sVracing
p8249
g1533
sVguns
p8250
g3152
sVmultitude
p8251
g8251
sVscowling
p8252
Vscowl
p8253
sVcondensed
p8254
Vcondense
p8255
sVtoes
p8256
g7320
sVClouds
p8257
g4410
sVtags
p8258
Vtag
p8259
sVhalf-eaten
p8260
g8260
sVjati
p8261
g8261
sVdirections
p8262
Vdirection
p8263
sVskidded
p8264
g6096
sVequations
p8265
Vequation
p8266
sVShilpa
p8267
Vshilpa
p8268
sVallows
p8269
Vallow
p8270
sVcucumbers
p8271
Vcucumber
p8272
sVminiature
p8273
g8273
sVmilkshake
p8274
g8274
sVForrest
p8275
Vforrest
p8276
sVelongated
p8277
Velongate
p8278
sVsticking
p8279
g5371
sVToy
p8280
Vtoy
p8281
sVsitring
p8282
Vsitre
p8283
sVsuddenly
p8284
g8284
sVTow
p8285
Vtow
p8286
sVappliances
p8287
Vappliance
p8288
sVTom
p8289
Vtom
p8290
sVBoiled
p8291
g494
sVdonuts
p8292
Vdonut
p8293
sVMurphey
p8294
Vmurphey
p8295
sVT-shirt
p8296
Vt-shirt
p8297
sVshits
p8298
Vshit
p8299
sVhorses
p8300
g3984
sVflat
p8301
g8301
sVflap
p8302
Vflap
p8303
sVgrabbing
p8304
g4634
sVstics
p8305
Vstic
p8306
sVdomination
p8307
g8307
sVstethoscope
p8308
g8308
sVstick
p8309
g5371
sVwrestled
p8310
Vwrestle
p8311
sVprimate
p8312
g8312
sVequation
p8313
g8313
sVjack-o-lantern
p8314
g8314
sVtapioca
p8315
g8315
sVwrestler
p8316
g8316
sVwrestles
p8317
g8311
sVWade
p8318
g1239
sVDifferent
p8319
Vdifferent
p8320
sVpony
p8321
g8321
sVsalted
p8322
g1005
sVsectioned
p8323
g1391
sVpond
p8324
g8324
sVairplane
p8325
g8325
sVswung
p8326
g4702
sVRicearoni
p8327
Vricearoni
p8328
sVcourt
p8329
Vcourt
p8330
sVgoal
p8331
g8331
sVrather
p8332
g8332
sVbreaking
p8333
g2709
sVspeeding
p8334
g245
sVexplains
p8335
g96
sVgoat
p8336
g8336
sVtinfoil
p8337
g8337
sVsandwich
p8338
Vsandwich
p8339
sVsprinking
p8340
Vsprink
p8341
sValgebra
p8342
g8342
sVlighting
p8343
g4889
sVshort
p8344
Vshort
p8345
sVshore
p8346
Vshore
p8347
sValligator's
p8348
Valligator'
p8349
sVshade
p8350
Vshade
p8351
sVmaneuver
p8352
g980
sVhandlebars
p8353
Vhandlebar
p8354
sVessence
p8355
g8355
sVeludes
p8356
Velude
p8357
sVstyle
p8358
g5961
sVmattress
p8359
Vmattres
p8360
sVacoustical
p8361
g8361
sVparts
p8362
g6263
sVbout
p8363
g8363
sVsoccer
p8364
g8364
sVpram
p8365
g8365
sVsucking
p8366
g6125
sVracoons
p8367
Vracoon
p8368
sVhunter
p8369
g8369
sVinch
p8370
g8370
sVhunted
p8371
g1330
sVbigger
p8372
g8372
sVinstructions
p8373
Vinstruction
p8374
sVRae
p8375
Vrae
p8376
sVpoliceman
p8377
g8377
sVRaw
p8378
Vraw
p8379
sVweight
p8380
Vweight
p8381
sVHamsters
p8382
Vhamster
p8383
sVscratching
p8384
g775
sVbraided
p8385
Vbraid
p8386
sVreverent
p8387
g8387
sVclmbing
p8388
g8388
sValcohol
p8389
g8389
sVclandestine
p8390
g8390
sVhealth
p8391
g8391
sVhill
p8392
Vhill
p8393
sVFrankenstein
p8394
Vfrankenstein
p8395
sVcancy
p8396
g8396
sVroofs
p8397
g4952
sVwarm-up
p8398
g8398
sVcookie
p8399
g8399
sVteach
p8400
g4859
sVguy
p8401
g4072
sVthrown
p8402
g3670
sVbuilding's
p8403
Vbuilding'
p8404
sVthread
p8405
Vthread
p8406
sVPeople
p8407
g550
sVrollerblades
p8408
Vrollerblade
p8409
sVlemurs
p8410
Vlemur
p8411
sVsnowboarding
p8412
Vsnowboard
p8413
sVfallen
p8414
g731
sVthrows
p8415
g3670
sVdive
p8416
g1043
sVfrech
p8417
g8417
sVdries
p8418
g147
sVfancy
p8419
Vfancy
p8420
sVtraveled
p8421
Vtravele
p8422
sVfeet
p8423
g8423
sVIndian
p8424
Vindian
p8425
sVblank
p8426
Vblank
p8427
sVtraveler
p8428
g8428
sVcake-cup
p8429
g8429
sVpasses
p8430
g1385
sVstory
p8431
Vstory
p8432
sVModels
p8433
g651
sVleading
p8434
g2003
sVinterviews
p8435
g1583
sVhangs
p8436
g12
sVswarm
p8437
Vswarm
p8438
sVpassed
p8439
g1385
sVsward
p8440
g8440
sVphotographing
p8441
g2998
sVstore
p8442
Vstore
p8443
sVpump
p8444
g5625
sVexploded
p8445
g902
sVhotel
p8446
g8446
sVrifle
p8447
g6177
sVexplodes
p8448
g902
sVreflection
p8449
g8449
sVkind
p8450
g8450
sVvial
p8451
g8451
sVdouble
p8452
Vdouble
p8453
sVaims
p8454
g2925
sVstall
p8455
Vstall
p8456
sVstalk
p8457
g6624
sVoutdoors
p8458
Voutdoor
p8459
sVcleaner
p8460
g8460
sVuniforms
p8461
g3178
sVcleaned
p8462
g4051
sVBullet
p8463
Vbullet
p8464
sVfinding
p8465
g1516
sVbanjo
p8466
g8466
sVpuffing
p8467
g6040
sVadded
p8468
g2989
sVelectric
p8469
g8469
sVmeasures
p8470
g4497
sVreach
p8471
g4766
sVcigarette
p8472
g8472
sVnothing
p8473
Vnothe
p8474
sVseasons
p8475
g4687
sVpouncing
p8476
g2367
sVmeasured
p8477
g4497
sVsoared
p8478
g7846
sVwindows
p8479
g3318
sVtraditional
p8480
g8480
sVNapkins
p8481
Vnapkin
p8482
sVlying
p8483
g5340
sVbending
p8484
g1520
sVasphalt
p8485
Vasphalt
p8486
sVhowls
p8487
Vhowl
p8488
sVcried
p8489
g1655
sVgrazed
p8490
g430
sVtills
p8491
g3556
sVfirewood
p8492
g8492
sVpenalty
p8493
g8493
sVmom's
p8494
Vmom'
p8495
sVhip
p8496
g8496
sVhis
p8497
Vhi
p8498
sVtriangle
p8499
g8499
sVgains
p8500
Vgain
p8501
sVsaluting
p8502
g8237
sVSargent
p8503
Vsargent
p8504
sVhim
p8505
g8505
sVPeguins
p8506
Vpeguin
p8507
sVnibbles
p8508
g2032
sVinvestigate
p8509
g6079
sVcartoons
p8510
Vcartoon
p8511
sVwheeling
p8512
g1734
sVwrote
p8513
g1636
sVbars
p8514
g5139
sVart
p8515
g8515
sVchoreographed
p8516
Vchoreograph
p8517
sVbare
p8518
Vbare
p8519
sVare
p8520
g1157
sVbark
p8521
g4930
sVarm
p8522
g4932
sVbarn
p8523
g8523
sVcolander
p8524
g8524
sVjalapeo
p8525
g8525
sVBY
p8526
Vby
p8527
sVvarious
p8528
Vvariou
p8529
sVplywood
p8530
g8530
sVorbiting
p8531
Vorbit
p8532
sVother's
p8533
Vother'
p8534
sVnumerous
p8535
Vnumerou
p8536
sVrecently
p8537
g8537
sVcreating
p8538
g2763
sVinitially
p8539
g8539
sVattention
p8540
g8540
sVoutfit
p8541
g7302
sVrapid
p8542
g8542
sVAfrican
p8543
Vafrican
p8544
sVbronze
p8545
g2118
sVautomatice
p8546
g8546
sVriddled
p8547
Vriddle
p8548
sVSuperman
p8549
Vsuperman
p8550
sVsloth
p8551
g8551
sVflies
p8552
g5348
sVsweet
p8553
g8553
sVWillis
p8554
Vwilli
p8555
sVwastebasket
p8556
g8556
sVsweep
p8557
g3605
sVnipping
p8558
g6678
sVvillage
p8559
g8559
sVslots
p8560
g7441
sVteaches
p8561
g4859
sVdug
p8562
g2401
sVpc
p8563
g8563
sVmake-up
p8564
g8564
sVbrick
p8565
g203
sVwoke
p8566
g4367
sVreferee
p8567
Vreferee
p8568
sVflight
p8569
g4069
sVvaguely
p8570
g8570
sVmisbehaving
p8571
Vmisbehave
p8572
sVWolves
p8573
Vwolve
p8574
sVinstructor
p8575
g8575
sVplants
p8576
g1463
sVSea-Doo
p8577
Vsea-doo
p8578
sVfrozen
p8579
g6477
sVballoons
p8580
g5696
sVbatch
p8581
Vbatch
p8582
sVplante
p8583
g8583
sVezcrackers
p8584
Vezcracker
p8585
sVdemon
p8586
g8586
sVleans
p8587
g1751
sVrollerskating
p8588
g2030
sVobstacle
p8589
g8589
sVquail
p8590
g3935
sVrib
p8591
g5328
sVcurrents
p8592
Vcurrent
p8593
sVshirt
p8594
g8594
sVparading
p8595
g4220
sVgorlilla
p8596
g8596
sVwierd
p8597
g8597
sVkimono
p8598
g8598
sVfirearms
p8599
Vfirearm
p8600
sVpeoples
p8601
g550
sVhigher
p8602
g8602
sVarrives
p8603
g862
sVfastens
p8604
g660
sVflows
p8605
Vflow
p8606
sVholidays
p8607
Vholiday
p8608
sVmoving
p8609
g3718
sVPineapple
p8610
Vpineapple
p8611
sVlower
p8612
g3844
sVnoodle
p8613
g8613
sVbarehands
p8614
Vbarehand
p8615
sVchickens
p8616
Vchicken
p8617
sVcheer
p8618
g3970
sVchees
p8619
Vchee
p8620
sVriffle
p8621
Vriffle
p8622
sVbounced
p8623
g1848
sVdoberman
p8624
g8624
sVknot
p8625
g1345
sVall-star
p8626
g8626
sVmargarine
p8627
g8627
sVmove
p8628
g3718
sVloading
p8629
g1687
sVworkers
p8630
Vworker
p8631
sVhumanoid
p8632
g8632
sVspeedily
p8633
g8633
sVIt's
p8634
Vit'
p8635
sVacrobatics
p8636
Vacrobatic
p8637
sVcomplaint
p8638
g8638
sVawakes
p8639
g1728
sVsharpened
p8640
g5492
sVshaped
p8641
g2309
sVshapes
p8642
g2309
sVchin-ups
p8643
Vchin-up
p8644
sVsprinklers
p8645
Vsprinkler
p8646
sVforkful
p8647
g8647
sVcandy
p8648
Vcandy
p8649
sVsauces
p8650
g1501
sVsaucer
p8651
g8651
sVgradually
p8652
g8652
sVdrunkenly
p8653
g8653
sVSpices
p8654
g5977
sVprop
p8655
g3622
sVtends
p8656
g3310
sVfragments
p8657
Vfragment
p8658
sVbookshelves
p8659
Vbookshelve
p8660
sVperpendicular
p8661
g8661
sVBikers
p8662
Vbiker
p8663
sVvolleyballs
p8664
Vvolleyball
p8665
sVrefuses
p8666
Vrefuse
p8667
sVde-shelled
p8668
Vde-shel
p8669
sVhousekeeping
p8670
Vhousekeep
p8671
sVpuppie
p8672
g8672
sVorangatan
p8673
g8673
sVfiring
p8674
g1720
sVrange
p8675
Vrange
p8676
sVBears
p8677
g4530
sVstrumming
p8678
g1929
sVstitches
p8679
Vstitch
p8680
sVrows
p8681
g6288
sVfast
p8682
Vfast
p8683
sVsections
p8684
g1391
sVfiles
p8685
g5999
sVmountains
p8686
Vmountain
p8687
sVAnimals
p8688
Vanimal
p8689
sVskewers
p8690
g6105
sVcloth
p8691
g8691
sVrepeatedly
p8692
g8692
sVupright
p8693
Vupright
p8694
sVraising
p8695
g584
sVpenguin
p8696
g8696
sVfries
p8697
g445
sVparticipants
p8698
Vparticipant
p8699
sVfried
p8700
g445
sVcalled
p8701
g603
sVdill
p8702
g8702
sVsoars
p8703
g7846
sVingredients
p8704
Vingredient
p8705
sVrally
p8706
Vrally
p8707
sVhorse-rider
p8708
g8708
sVrainbow
p8709
g8709
sVlemon
p8710
g8710
sVpeach
p8711
Vpeach
p8712
sVrains
p8713
g4
sVswats
p8714
g2776
sVbacks
p8715
g1760
sVteams
p8716
g707
sVclub
p8717
Vclub
p8718
sVparlor
p8719
g8719
sVmustard
p8720
g8720
sVproblems
p8721
Vproblem
p8722
sVbreasts
p8723
g6332
sVhelping
p8724
g3899
sVgenerated
p8725
Vgenerate
p8726
sVwakeboarding
p8727
Vwakeboard
p8728
sVvice
p8729
g8729
sVattacking
p8730
g4534
sVweights
p8731
g8381
sVonce
p8732
g8732
sVwrestle
p8733
g8311
sVwindy
p8734
g8734
sVwinds
p8735
g180
sVfenced
p8736
g3790
sVlanguages
p8737
Vlanguage
p8738
sVsqueezing
p8739
g1117
sVsnipes
p8740
Vsnipe
p8741
sVCriss
p8742
Vcris
p8743
sVspoon
p8744
g909
sVdrinking
p8745
g2410
sVtutu
p8746
g8746
sVposture
p8747
g3709
sVnotes
p8748
g969
sVviolinists
p8749
Vviolinist
p8750
sVmotor-scooter
p8751
g8751
sVsmaller
p8752
g8752
sVgreen-board
p8753
g8753
sVfolds
p8754
g5117
sVVegetables
p8755
Vvegetable
p8756
sVwrestling
p8757
g8311
sVcarefully
p8758
g8758
sVtraveling
p8759
Vtravele
p8760
sVmarinade
p8761
Vmarinade
p8762
sVmanipulating
p8763
g1965
sVman's
p8764
Vman'
p8765
sVwaiting
p8766
g596
sVattire
p8767
Vattire
p8768
sVammunition
p8769
g8769
sVbowled
p8770
g216
sVkangaroo
p8771
Vkangaroo
p8772
sVpushing
p8773
g670
sVhitchhiking
p8774
g6043
sVsexy
p8775
g8775
sVmodifies
p8776
Vmodify
p8777
sVcyclist
p8778
g8778
sVlegionnaire
p8779
g8779
sVpickle
p8780
g1185
sVaardvark
p8781
g8781
sVlarger
p8782
g8782
sVleaving
p8783
g7151
sVevading
p8784
g3157
sVorangutan
p8785
g8785
sVtownspeople
p8786
g8786
sVshaded
p8787
g8351
sVocean's
p8788
Vocean'
p8789
sVapple
p8790
g8790
sVscales
p8791
g3329
sVscaled
p8792
g3329
sVperformer
p8793
g8793
sVmotor
p8794
Vmotor
p8795
sVduck
p8796
g1764
sVapply
p8797
g2920
sVwalruses
p8798
Vwalruse
p8799
sVshoves
p8800
Vshove
p8801
sVgalloped
p8802
g1448
sVape
p8803
Vape
p8804
sVfed
p8805
Vfed
p8806
sVfrom
p8807
g8807
sVfigure
p8808
g2344
sViced
p8809
g696
sVfrog
p8810
g788
sVfew
p8811
g8811
sVdepicted
p8812
Vdepict
p8813
sVweeping
p8814
Vweep
p8815
sVbitterly
p8816
g8816
sVsort
p8817
Vsort
p8818
sVjournalists
p8819
Vjournalist
p8820
sVporuing
p8821
Vporu
p8822
sVmusician
p8823
g8823
sVurad
p8824
g8824
sVrabbit
p8825
g7061
sVwomen
p8826
g8826
sVslaps
p8827
g5823
sVrefigerator
p8828
g8828
sVdusted
p8829
g2414
sVdatebook
p8830
g8830
sVperformed
p8831
g2954
sVtap
p8832
g2288
sVmowing
p8833
g6582
sVcarrot
p8834
g8834
sVsomething
p8835
Vsomethe
p8836
sVonions
p8837
Vonion
p8838
sVtai
p8839
g8839
sVsip
p8840
g1671
sVsit
p8841
g962
sVsix
p8842
g8842
sVstruggles
p8843
g5846
sVtickling
p8844
g6715
sVinstead
p8845
g8845
sVtoddler
p8846
g8846
sVcuffed
p8847
g1807
sVhurdles
p8848
g6770
sVcupboard
p8849
g8849
sVmasks
p8850
g1321
sVwrist
p8851
g8851
sVtaco
p8852
g8852
sVplucker
p8853
g8853
sVdunked
p8854
g3952
sVscrubs
p8855
g2862
sVcrawling
p8856
g273
sVnecklace
p8857
g8857
sVpreparing
p8858
g3686
sVminnow
p8859
g8859
sVlooks
p8860
g3363
sVquake
p8861
Vquake
p8862
sVonigiri
p8863
g8863
sVBird
p8864
Vbird
p8865
sVbadger
p8866
Vbadger
p8867
sVunderwater
p8868
g8868
sVrestrain
p8869
Vrestrain
p8870
sVchoose
p8871
Vchoose
p8872
sVinspecting
p8873
g1877
sVSomeoen
p8874
Vsomeoen
p8875
sVorange
p8876
g8876
sVcovered
p8877
g1613
sVedging
p8878
g1144
sVcrash
p8879
g733
sVcitrus
p8880
Vcitru
p8881
sVflour
p8882
g2085
sVpractice
p8883
g2060
sVbarbeque
p8884
g8884
sVflew
p8885
g5348
sVCan
p8886
g1083
sVRabbits
p8887
g7061
sVflee
p8888
g4150
sVflowerette
p8889
g8889
sVweather
p8890
Vweather
p8891
sVfiddle
p8892
Vfiddle
p8893
sVtray
p8894
g8894
sVflorets
p8895
Vfloret
p8896
sVouf
p8897
g8897
sVwhitish
p8898
g8898
sVbrow
p8899
g8899
sVout
p8900
Vout
p8901
sVeights
p8902
Veight
p8903
sVparasailing
p8904
Vparasail
p8905
sVparrot's
p8906
Vparrot'
p8907
sVflattening
p8908
g4623
sVperforms
p8909
g2954
sVBaby
p8910
g486
sVburrowing
p8911
g6020
sVsculpting
p8912
Vsculpt
p8913
sVThis
p8914
Vthi
p8915
sVutensil
p8916
g8916
sVipod
p8917
g8917
sVThin
p8918
g2065
sVconversation
p8919
g8919
sVproduce
p8920
Vproduce
p8921
sVbiting
p8922
g255
sVwakening
p8923
Vwaken
p8924
sVhotplate
p8925
g8925
sVsignboard
p8926
g8926
sVbonnet
p8927
g8927
sVunknown
p8928
g8928
sVinmate
p8929
g8929
sVtheir
p8930
g8930
sVtheit
p8931
g8931
sVdrool
p8932
Vdrool
p8933
sVHawk
p8934
Vhawk
p8935
sVboil
p8936
g494
sVinner
p8937
g8937
sVshell
p8938
g5955
sVshallot
p8939
g8939
sVshelf
p8940
g8940
sVshallow
p8941
Vshallow
p8942
sVslides
p8943
g2072
sVsimulate
p8944
Vsimulate
p8945
sVreverses
p8946
g6359
sVpupplies
p8947
Vpupply
p8948
sVscreeching
p8949
Vscreech
p8950
sVpatients
p8951
Vpatient
p8952
sVsquealing
p8953
g7633
sVsculpture
p8954
g322
sVhairstyle
p8955
g8955
sVclip
p8956
g1843
sVfowl
p8957
Vfowl
p8958
sVoverboard
p8959
g8959
sVteenagers
p8960
Vteenager
p8961
sVwathces
p8962
Vwathce
p8963
sVSoccer
p8964
Vsoccer
p8965
sVclove
p8966
Vcleave
p8967
sVafraid
p8968
g8968
sVangle
p8969
g6934
sVAfter
p8970
Vafter
p8971
sVwhich
p8972
g8972
sVvegetation
p8973
g8973
sVclash
p8974
Vclash
p8975
sVcentre
p8976
Vcentre
p8977
sVpetrol
p8978
g8978
sVwho
p8979
g8979
sVric-a-roni
p8980
g8980
sVcracking
p8981
g4139
sVclass
p8982
g7337
sVShopper
p8983
Vshopper
p8984
sVvisiting
p8985
Vvisit
p8986
sVlooked
p8987
g3363
sVguinea
p8988
g8988
sVstove
p8989
Vstove
p8990
sVseaweed
p8991
Vseawee
p8992
sVchicken
p8993
g8993
sVhalf-naked
p8994
Vhalf-nake
p8995
sVmugs
p8996
g7448
sVprint
p8997
g988
sVsurroundings
p8998
Vsurrounding
p8999
sVpiano
p9000
g9000
sVthousands
p9001
Vthousand
p9002
sVspun
p9003
g253
sVcube
p9004
g6356
sVwatching
p9005
g1285
sVwatchint
p9006
g9006
sVcubs
p9007
g6446
sVwords
p9008
Vword
p9009
sVhandgun
p9010
g9010
sVcutout
p9011
g9011
sVstitching
p9012
g8680
sVmarried
p9013
g6441
sVPenne
p9014
Vpenne
p9015
sVsaucers
p9016
Vsaucer
p9017
sVunison
p9018
g9018
sVoutruns
p9019
g3786
sVviolen
p9020
g9020
sVviolet
p9021
g9021
sVonion's
p9022
Vonion'
p9023
sVcloses
p9024
g4097
sVstill
p9025
Vstill
p9026
sVcloset
p9027
Vcloset
p9028
sVmeatballs
p9029
Vmeatball
p9030
sVtargeted
p9031
g2783
sVclosed
p9032
g4097
sVwetting
p9033
g2440
sVtorpedo
p9034
Vtorpedo
p9035
sVpants
p9036
Vpant
p9037
sVScrambles
p9038
g4599
sVopening
p9039
g925
sVjoy
p9040
Vjoy
p9041
sVjog
p9042
g3137
sVFirefox
p9043
Vfirefox
p9044
sVcanopy
p9045
Vcanopy
p9046
sVcommando
p9047
g9047
sVwall
p9048
g4338
sVDVD
p9049
Vdvd
p9050
sVwalk
p9051
g1007
sVpackaging
p9052
g1215
sVtable
p9053
Vtable
p9054
sVtrays
p9055
Vtray
p9056
sVladled
p9057
g5734
sVmotorbike
p9058
g9058
sVladles
p9059
g5734
sVshimp
p9060
g9060
sVbbq
p9061
g9061
sVmike
p9062
g6384
sVWelch's
p9063
Vwelch'
p9064
sVpainted
p9065
g2276
sVndog
p9066
g9066
sVunpeeled
p9067
Vunpeel
p9068
sVbike-man
p9069
g9069
sVpainter
p9070
g9070
sVeyelashes
p9071
Veyelash
p9072
sVvanilla
p9073
g9073
sVHalloween
p9074
Vhalloween
p9075
sVirate
p9076
g9076
sVPotatos
p9077
Vpotato
p9078
sVwild
p9079
g9079
sVrooster
p9080
g9080
sVdraining
p9081
g3699
sVfrying
p9082
g445
sVsnuck
p9083
g1885
sVkneaded
p9084
g704
sVlauching
p9085
Vlauch
p9086
sVcross
p9087
g4432
sVmember
p9088
g9088
sVesculator
p9089
g9089
sVPasta
p9090
Vpasta
p9091
sVgets
p9092
g5744
sVtomatoes
p9093
Vtomatoe
p9094
sVhammering
p9095
g384
sVelbows
p9096
g2658
sVvaquero
p9097
g9097
sVcoached
p9098
g7653
sVLuggage
p9099
Vluggage
p9100
sVcoaches
p9101
Vcoach
p9102
sVwhale
p9103
Vwhale
p9104
sVlobby
p9105
Vlobby
p9106
sVwarming
p9107
g4942
sVunderneath
p9108
g9108
sVgutter
p9109
Vgutter
p9110
sVplowed
p9111
g1548
sVwheelbarrows
p9112
Vwheelbarrow
p9113
sVbanging
p9114
g3207
sVfighting
p9115
g1595
sVStates
p9116
Vstate
p9117
sVscissor
p9118
g5255
sVrocker
p9119
g9119
sVtussled
p9120
g3801
sVrocket
p9121
Vrocket
p9122
sVenlosed
p9123
Venlose
p9124
sVcries
p9125
g1655
sVfishing
p9126
g1235
sVrocked
p9127
g2724
sVRice-a-Roni
p9128
Vrice-a-roni
p9129
sVpanther
p9130
g9130
sVnicks
p9131
Vnick
p9132
sVpoint
p9133
g3764
sVsky
p9134
Vsky
p9135
sVFat
p9136
g8226
sVarresting
p9137
g2434
sVother
p9138
g9138
sVreadymade
p9139
g9139
sVjars
p9140
g2296
sVski
p9141
g683
sVT
p9142
Vt
p9143
sVfacial
p9144
g9144
sVMechanical
p9145
Vmechanical
p9146
sVCarrie
p9147
Vcarrie
p9148
sVElephants
p9149
Velephant
p9150
sVloses
p9151
Vlose
p9152
sVcutlet
p9153
g9153
sVhitchhike
p9154
g6043
sVbecause
p9155
g9155
sVsequence
p9156
g9156
sVscared
p9157
g3893
sVsearching
p9158
g2549
sVtwirling
p9159
g4936
sVscares
p9160
g3893
sVdisrupting
p9161
Vdisrupt
p9162
sVleaf
p9163
g7359
sVlead
p9164
g2003
sVleak
p9165
Vleak
p9166
sVpolice-man
p9167
g9167
sVdetergent
p9168
g9168
sVleap
p9169
g1397
sVnoose
p9170
g9170
sVleader
p9171
g9171
sVdangling
p9172
g66
sVOxiclean
p9173
Voxiclean
p9174
sVpasta
p9175
g9175
sVpaste
p9176
g3278
sVdozing
p9177
Vdoze
p9178
sVcarried
p9179
g2050
sVgetting
p9180
g5744
sVbiscuit
p9181
g9181
sVshipping
p9182
g5379
sVWayons
p9183
Vwayon
p9184
sVcarries
p9185
g2050
sVstep-ups
p9186
Vstep-up
p9187
sVentered
p9188
g514
sVown
p9189
Vown
p9190
sVwilderness
p9191
Vwildernes
p9192
sVtravelers
p9193
Vtraveler
p9194
sVsoaks
p9195
g296
sVweighted
p9196
g8381
sVbrush
p9197
g6551
sVregistration
p9198
g9198
sVvan
p9199
g9199
sVtransfer
p9200
g3420
sVspiral
p9201
Vspiral
p9202
sVovertime
p9203
Vovertime
p9204
sVsitiing
p9205
Vsitie
p9206
sVpowdered
p9207
g91
sVcliff
p9208
g9208
sVbeard
p9209
g5250
sVsqueeze
p9210
g1117
sVmade
p9211
g2026
sVbelow
p9212
g9212
sVcake
p9213
g7766
sVdemonstrate
p9214
g2114
sVstirring
p9215
g6157
sVunfolding
p9216
g4990
sVgnawing
p9217
g2304
sVspanks
p9218
g7647
sVtrotting
p9219
g4949
sVdomesticated
p9220
Vdomesticate
p9221
sVquails
p9222
g3935
sVboot
p9223
g4365
sVinset
p9224
Vinset
p9225
sVwaterskiing
p9226
Vwaterski
p9227
sVFuji
p9228
Vfuji
p9229
sVsmears
p9230
g3192
sVroars
p9231
Vroar
p9232
sVbook
p9233
g2177
sVFive
p9234
Vfive
p9235
sVbranch
p9236
Vbranch
p9237
sVbrance
p9238
g9238
sVwheeler
p9239
g9239
sVkinds
p9240
Vkind
p9241
sVshredded
p9242
g6036
sVjetski
p9243
g9243
sVsandwhich
p9244
g9244
sVPanda's
p9245
Vpanda'
p9246
sVtoasts
p9247
g488
sVupwards
p9248
Vupward
p9249
sVSparrow
p9250
Vsparrow
p9251
sVranks
p9252
Vrank
p9253
sVpods
p9254
g7987
sVdominoes
p9255
Vdominoe
p9256
sVhardboiled
p9257
Vhardboil
p9258
s.